cnumpy.core.multiarray
_reconstruct
p1
(cnumpy
ndarray
p2
(I0
tS'b'
tRp3
(I1
(I3
tcnumpy
dtype
p4
(S'f8'
I0
I1
tRp5
(I3
S'<'
NNNI-1
I-1
I0
tbI00
S'\xdb\x8f\x1flIc\xd2?\xc9\xd8_2s\x06\xdc?\\\x97\x80aC\x96\xd1?'
tb.