(lp1
ccollections
defaultdict
p2
(c__builtin__
float
p3
tRp4
I0
F0.24392439243924394
sI1
F0.096309630963096304
sI2
F0.063906390639063906
sI3
F0.033753375337533753
sI4
F0.030153015301530153
sI5
F0.026102610261026102
sI6
F0.017551755175517551
sI7
F0.02115211521152115
sI8
F0.018001800180018002
sI9
F0.012151215121512151
sI10
F0.0081008100810081012
sI11
F0.0099009900990099011
sI12
F0.012601260126012601
sI13
F0.0067506750675067504
sI14
F0.0067506750675067504
sI15
F0.010351035103510351
sI16
F0.0076507650765076504
sI17
F0.0040504050405040506
sI18
F0.0076507650765076504
sI19
F0.0049504950495049506
sI20
F0.0036003600360036002
sI21
F0.0054005400540054005
sI22
F0.0076507650765076504
sI23
F0.0031503150315031502
sI24
F0.0063006300630063005
sI25
F0.0045004500450045006
sI26
F0.0054005400540054005
sI27
F0.0040504050405040506
sI28
F0.0045004500450045006
sI29
F0.0054005400540054005
sI30
F0.0040504050405040506
sI31
F0.0027002700270027003
sI32
F0.0049504950495049506
sI33
F0.0045004500450045006
sI34
F0.0013501350135013501
sI35
F0.0063006300630063005
sI36
F0.00090009000900090005
sI37
F0.0022502250225022503
sI38
F0.0027002700270027003
sI39
F0.0031503150315031502
sI40
F0.0018001800180018001
sI41
F0.0027002700270027003
sI42
F0.0022502250225022503
sI43
F0.0040504050405040506
sI44
F0.0013501350135013501
sI45
F0.0036003600360036002
sI46
F0.0018001800180018001
sI47
F0.0031503150315031502
sI48
F0.0027002700270027003
sI49
F0.0013501350135013501
sI50
F0.0013501350135013501
sI51
F0.0031503150315031502
sI52
F0.0031503150315031502
sI53
F0.0018001800180018001
sI54
F0.0022502250225022503
sI55
F0.0031503150315031502
sI2104
F0.00045004500450045003
sI57
F0.0022502250225022503
sI58
F0.0018001800180018001
sI59
F0.00045004500450045003
sI2108
F0.00045004500450045003
sI61
F0.0013501350135013501
sI62
F0.0027002700270027003
sI63
F0.0013501350135013501
sI64
F0.0018001800180018001
sI65
F0.00090009000900090005
sI66
F0.0022502250225022503
sI67
F0.0031503150315031502
sI68
F0.0013501350135013501
sI69
F0.0018001800180018001
sI70
F0.0031503150315031502
sI71
F0.00090009000900090005
sI72
F0.00045004500450045003
sI73
F0.0018001800180018001
sI74
F0.00090009000900090005
sI75
F0.0013501350135013501
sI76
F0.0027002700270027003
sI77
F0.00045004500450045003
sI78
F0.0013501350135013501
sI79
F0.0018001800180018001
sI2129
F0.00045004500450045003
sI82
F0.00090009000900090005
sI83
F0.00045004500450045003
sI84
F0.00090009000900090005
sI85
F0.00045004500450045003
sI86
F0.00045004500450045003
sI87
F0.0013501350135013501
sI88
F0.00045004500450045003
sI89
F0.00045004500450045003
sI90
F0.00045004500450045003
sI91
F0.0013501350135013501
sI93
F0.0013501350135013501
sI95
F0.00045004500450045003
sI96
F0.0022502250225022503
sI97
F0.0013501350135013501
sI98
F0.00045004500450045003
sI100
F0.0013501350135013501
sI101
F0.00090009000900090005
sI102
F0.00090009000900090005
sI104
F0.00090009000900090005
sI105
F0.00045004500450045003
sI107
F0.00045004500450045003
sI108
F0.0013501350135013501
sI109
F0.00090009000900090005
sI110
F0.0013501350135013501
sI111
F0.0013501350135013501
sI113
F0.0022502250225022503
sI114
F0.0013501350135013501
sI117
F0.00045004500450045003
sI118
F0.00045004500450045003
sI119
F0.00045004500450045003
sI120
F0.00045004500450045003
sI121
F0.0013501350135013501
sI122
F0.00045004500450045003
sI123
F0.00090009000900090005
sI125
F0.00090009000900090005
sI126
F0.00045004500450045003
sI129
F0.00045004500450045003
sI130
F0.00090009000900090005
sI131
F0.0013501350135013501
sI132
F0.00045004500450045003
sI133
F0.00045004500450045003
sI134
F0.0013501350135013501
sI135
F0.0018001800180018001
sI136
F0.00045004500450045003
sI137
F0.0013501350135013501
sI138
F0.00090009000900090005
sI140
F0.00090009000900090005
sI141
F0.00090009000900090005
sI143
F0.00045004500450045003
sI145
F0.00045004500450045003
sI146
F0.00045004500450045003
sI2196
F0.00045004500450045003
sI152
F0.00045004500450045003
sI153
F0.00090009000900090005
sI154
F0.00045004500450045003
sI155
F0.00045004500450045003
sI156
F0.00045004500450045003
sI158
F0.00045004500450045003
sI159
F0.00045004500450045003
sI160
F0.0013501350135013501
sI161
F0.00090009000900090005
sI162
F0.00045004500450045003
sI164
F0.00045004500450045003
sI8357
F0.00045004500450045003
sI166
F0.00090009000900090005
sI170
F0.00045004500450045003
sI171
F0.00090009000900090005
sI2220
F0.00045004500450045003
sI174
F0.00045004500450045003
sI175
F0.00045004500450045003
sI180
F0.0018001800180018001
sI183
F0.00090009000900090005
sI184
F0.00045004500450045003
sI185
F0.00090009000900090005
sI187
F0.00090009000900090005
sI188
F0.00045004500450045003
sI189
F0.00090009000900090005
sI190
F0.00045004500450045003
sI2080
F0.00045004500450045003
sI194
F0.00045004500450045003
sI195
F0.00090009000900090005
sI196
F0.0018001800180018001
sI197
F0.00045004500450045003
sI198
F0.00090009000900090005
sI199
F0.0013501350135013501
sI200
F0.00045004500450045003
sI201
F0.00045004500450045003
sI203
F0.00045004500450045003
sI204
F0.00045004500450045003
sI205
F0.00090009000900090005
sI207
F0.00045004500450045003
sI211
F0.00090009000900090005
sI212
F0.00045004500450045003
sI214
F0.00090009000900090005
sI216
F0.00045004500450045003
sI217
F0.00045004500450045003
sI218
F0.00045004500450045003
sI219
F0.00090009000900090005
sI4316
F0.00045004500450045003
sI222
F0.00090009000900090005
sI225
F0.00045004500450045003
sI227
F0.00045004500450045003
sI228
F0.00045004500450045003
sI230
F0.00045004500450045003
sI232
F0.00045004500450045003
sI233
F0.00045004500450045003
sI235
F0.00045004500450045003
sI238
F0.00045004500450045003
sI240
F0.00090009000900090005
sI2289
F0.00045004500450045003
sI242
F0.00090009000900090005
sI243
F0.00045004500450045003
sI245
F0.00045004500450045003
sI247
F0.00045004500450045003
sI248
F0.00045004500450045003
sI255
F0.00045004500450045003
sI256
F0.00090009000900090005
sI260
F0.00090009000900090005
sI264
F0.00090009000900090005
sI265
F0.00045004500450045003
sI269
F0.00045004500450045003
sI270
F0.00045004500450045003
sI277
F0.00090009000900090005
sI2055
F0.00045004500450045003
sI12570
F0.00045004500450045003
sI284
F0.00045004500450045003
sI285
F0.00090009000900090005
sI287
F0.00045004500450045003
sI290
F0.00045004500450045003
sI294
F0.00090009000900090005
sI295
F0.00045004500450045003
sI296
F0.00045004500450045003
sI299
F0.00045004500450045003
sI4399
F0.00045004500450045003
sI307
F0.00090009000900090005
sI308
F0.00045004500450045003
sI311
F0.00045004500450045003
sI313
F0.00045004500450045003
sI318
F0.00045004500450045003
sI2368
F0.00045004500450045003
sI322
F0.00045004500450045003
sI56
F0.0018001800180018001
sI338
F0.00045004500450045003
sI344
F0.00090009000900090005
sI345
F0.00090009000900090005
sI346
F0.00045004500450045003
sI2405
F0.00045004500450045003
sI358
F0.00045004500450045003
sI60
F0.00045004500450045003
sI362
F0.00045004500450045003
sI363
F0.00045004500450045003
sI366
F0.00090009000900090005
sI372
F0.00045004500450045003
sI373
F0.00090009000900090005
sI374
F0.00090009000900090005
sI377
F0.00045004500450045003
sI379
F0.00045004500450045003
sI380
F0.00045004500450045003
sI383
F0.00090009000900090005
sI4160
F0.00045004500450045003
sI393
F0.00045004500450045003
sI397
F0.00045004500450045003
sI399
F0.00045004500450045003
sI2453
F0.00045004500450045003
sI406
F0.00045004500450045003
sI409
F0.00045004500450045003
sI416
F0.00045004500450045003
sI417
F0.00045004500450045003
sI420
F0.00090009000900090005
sI423
F0.00045004500450045003
sI426
F0.00045004500450045003
sI428
F0.00045004500450045003
sI4526
F0.00045004500450045003
sI435
F0.00045004500450045003
sI436
F0.00045004500450045003
sI438
F0.00045004500450045003
sI443
F0.00090009000900090005
sI446
F0.00045004500450045003
sI447
F0.00045004500450045003
sI448
F0.00090009000900090005
sI455
F0.00045004500450045003
sI457
F0.00045004500450045003
sI458
F0.00045004500450045003
sI461
F0.00045004500450045003
sI2511
F0.00045004500450045003
sI465
F0.00045004500450045003
sI2517
F0.00045004500450045003
sI472
F0.00045004500450045003
sI480
F0.00045004500450045003
sI2471
F0.00045004500450045003
sI81
F0.00045004500450045003
sI489
F0.00090009000900090005
sI8683
F0.00045004500450045003
sI501
F0.00045004500450045003
sI509
F0.00045004500450045003
sI4612
F0.00045004500450045003
sI521
F0.00045004500450045003
sI524
F0.00045004500450045003
sI526
F0.00045004500450045003
sI530
F0.00045004500450045003
sI8736
F0.00045004500450045003
sI545
F0.00045004500450045003
sI546
F0.00045004500450045003
sI555
F0.00045004500450045003
sI561
F0.00045004500450045003
sI2612
F0.00045004500450045003
sI567
F0.00045004500450045003
sI571
F0.00045004500450045003
sI572
F0.00045004500450045003
sI576
F0.00045004500450045003
sI582
F0.00045004500450045003
sI584
F0.00045004500450045003
sI586
F0.00045004500450045003
sI2638
F0.00045004500450045003
sI596
F0.00090009000900090005
sI598
F0.00045004500450045003
sI600
F0.00045004500450045003
sI2658
F0.00045004500450045003
sI622
F0.00045004500450045003
sI637
F0.00090009000900090005
sI639
F0.00090009000900090005
sI667
F0.00045004500450045003
sI673
F0.00045004500450045003
sI678
F0.00045004500450045003
sI686
F0.00045004500450045003
sI691
F0.00045004500450045003
sI705
F0.00045004500450045003
sI707
F0.00090009000900090005
sI722
F0.00045004500450045003
sI724
F0.00045004500450045003
sI463
F0.00045004500450045003
sI735
F0.00045004500450045003
sI736
F0.00045004500450045003
sI737
F0.00045004500450045003
sI2795
F0.00045004500450045003
sI10994
F0.00045004500450045003
sI23287
F0.00045004500450045003
sI768
F0.00045004500450045003
sI770
F0.00045004500450045003
sI778
F0.00090009000900090005
sI780
F0.00090009000900090005
sI788
F0.00045004500450045003
sI800
F0.00045004500450045003
sI801
F0.00045004500450045003
sI805
F0.00045004500450045003
sI4323
F0.00045004500450045003
sI811
F0.00045004500450045003
sI2874
F0.00045004500450045003
sI834
F0.00045004500450045003
sI2886
F0.00045004500450045003
sI839
F0.00045004500450045003
sI853
F0.00045004500450045003
sI867
F0.00045004500450045003
sI870
F0.00045004500450045003
sI900
F0.00045004500450045003
sI902
F0.00045004500450045003
sI7056
F0.00045004500450045003
sI4250
F0.00045004500450045003
sI934
F0.00045004500450045003
sI3019
F0.00045004500450045003
sI982
F0.00045004500450045003
sI985
F0.00045004500450045003
sI1000
F0.00045004500450045003
sI1002
F0.00045004500450045003
sI3053
F0.00045004500450045003
sI3054
F0.00045004500450045003
sI1077
F0.00045004500450045003
sI1079
F0.00045004500450045003
sI1140
F0.00045004500450045003
sI1144
F0.00045004500450045003
sI1145
F0.00045004500450045003
sI1159
F0.00045004500450045003
sI1176
F0.00045004500450045003
sI1184
F0.00045004500450045003
sI7337
F0.00045004500450045003
sI1222
F0.00045004500450045003
sI1244
F0.00045004500450045003
sI1248
F0.00045004500450045003
sI1249
F0.00045004500450045003
sI1252
F0.00045004500450045003
sI1255
F0.00045004500450045003
sI1256
F0.00045004500450045003
sI3314
F0.00045004500450045003
sI1295
F0.00045004500450045003
sI1297
F0.00090009000900090005
sI13871
F0.00045004500450045003
sI1315
F0.00045004500450045003
sI3375
F0.00045004500450045003
sI1343
F0.00045004500450045003
sI5344
F0.00045004500450045003
sI3400
F0.00045004500450045003
sI2159
F0.00045004500450045003
sI1357
F0.00045004500450045003
sI2275
F0.00045004500450045003
sI1382
F0.00045004500450045003
sI5490
F0.00045004500450045003
sI1399
F0.00045004500450045003
sI1419
F0.00045004500450045003
sI3498
F0.00045004500450045003
sI1452
F0.00045004500450045003
sI7617
F0.00045004500450045003
sI1478
F0.00045004500450045003
sI1495
F0.00045004500450045003
sI27222
F0.00045004500450045003
sI3594
F0.00045004500450045003
sI1579
F0.00045004500450045003
sI1583
F0.00045004500450045003
sI1585
F0.00045004500450045003
sI3634
F0.00045004500450045003
sI1601
F0.00045004500450045003
sI30278
F0.00045004500450045003
sI5725
F0.00045004500450045003
sI1631
F0.00045004500450045003
sI1638
F0.00045004500450045003
sI1680
F0.00045004500450045003
sI1684
F0.00045004500450045003
sI3739
F0.00045004500450045003
sI193
F0.00045004500450045003
sI3775
F0.00045004500450045003
sI1734
F0.00045004500450045003
sI1747
F0.00045004500450045003
sI3800
F0.00045004500450045003
sI2342
F0.00045004500450045003
sI1786
F0.00045004500450045003
sI1794
F0.00045004500450045003
sI1814
F0.00045004500450045003
sI3879
F0.00045004500450045003
sI1847
F0.00045004500450045003
sI1859
F0.00045004500450045003
sI1868
F0.00045004500450045003
sI1871
F0.00045004500450045003
sI1873
F0.00045004500450045003
sI1900
F0.00045004500450045003
sI6000
F0.00045004500450045003
sI1930
F0.00045004500450045003
sI1974
F0.00045004500450045003
sI4055
F0.00045004500450045003
sI2020
F0.00045004500450045003
sag2
(g3
tRp5
I0
F0.26650660264105641
sI1
F0.10804321728691477
sI2
F0.070028011204481794
sI3
F0.050420168067226892
sI4
F0.030012004801920768
sI5
F0.026410564225690276
sI6
F0.021208483393357343
sI7
F0.01680672268907563
sI8
F0.016406562625050022
sI9
F0.010404161664665866
sI10
F0.010004001600640256
sI11
F0.0084033613445378148
sI12
F0.0060024009603841539
sI13
F0.0080032012805122052
sI14
F0.010404161664665866
sI15
F0.0076030412164865948
sI16
F0.0084033613445378148
sI17
F0.0068027210884353739
sI18
F0.0040016006402561026
sI19
F0.0072028811524609843
sI20
F0.005202080832332933
sI21
F0.0056022408963585435
sI22
F0.0064025610244097643
sI23
F0.010004001600640256
sI24
F0.0072028811524609843
sI25
F0.0056022408963585435
sI26
F0.004401760704281713
sI27
F0.0060024009603841539
sI28
F0.0048019207683073226
sI29
F0.0040016006402561026
sI30
F0.0056022408963585435
sI31
F0.0032012805122048822
sI32
F0.0024009603841536613
sI33
F0.00080032012805122054
sI34
F0.0024009603841536613
sI35
F0.0032012805122048822
sI36
F0.0024009603841536613
sI37
F0.0024009603841536613
sI38
F0.0032012805122048822
sI39
F0.0020008003201280513
sI40
F0.0016006402561024411
sI41
F0.0024009603841536613
sI42
F0.004401760704281713
sI43
F0.0016006402561024411
sI44
F0.0020008003201280513
sI45
F0.0020008003201280513
sI46
F0.0024009603841536613
sI47
F0.0012004801920768306
sI48
F0.0024009603841536613
sI49
F0.0024009603841536613
sI50
F0.0024009603841536613
sI51
F0.0024009603841536613
sI52
F0.0020008003201280513
sI53
F0.0032012805122048822
sI54
F0.0016006402561024411
sI55
F0.0016006402561024411
sI56
F0.0012004801920768306
sI57
F0.0016006402561024411
sI58
F0.0028011204481792717
sI59
F0.0016006402561024411
sI60
F0.00080032012805122054
sI61
F0.00080032012805122054
sI62
F0.0012004801920768306
sI63
F0.0024009603841536613
sI64
F0.0028011204481792717
sI65
F0.0012004801920768306
sI66
F0.0016006402561024411
sI67
F0.00040016006402561027
sI2116
F0.00040016006402561027
sI69
F0.0012004801920768306
sI70
F0.0012004801920768306
sI71
F0.0012004801920768306
sI72
F0.0020008003201280513
sI73
F0.00040016006402561027
sI74
F0.00080032012805122054
sI8267
F0.00040016006402561027
sI76
F0.00080032012805122054
sI77
F0.00080032012805122054
sI78
F0.0012004801920768306
sI79
F0.00080032012805122054
sI12368
F0.00040016006402561027
sI81
F0.0016006402561024411
sI82
F0.0016006402561024411
sI83
F0.00080032012805122054
sI85
F0.00080032012805122054
sI86
F0.0012004801920768306
sI87
F0.00040016006402561027
sI88
F0.00040016006402561027
sI89
F0.00080032012805122054
sI90
F0.0012004801920768306
sI91
F0.0012004801920768306
sI92
F0.00080032012805122054
sI94
F0.00040016006402561027
sI95
F0.0012004801920768306
sI97
F0.00080032012805122054
sI99
F0.00080032012805122054
sI100
F0.00040016006402561027
sI101
F0.00080032012805122054
sI103
F0.00080032012805122054
sI104
F0.0012004801920768306
sI105
F0.0012004801920768306
sI106
F0.00040016006402561027
sI107
F0.00040016006402561027
sI110
F0.00040016006402561027
sI111
F0.00040016006402561027
sI112
F0.00040016006402561027
sI113
F0.00040016006402561027
sI114
F0.00080032012805122054
sI115
F0.00040016006402561027
sI117
F0.00080032012805122054
sI118
F0.00040016006402561027
sI120
F0.00040016006402561027
sI121
F0.00080032012805122054
sI124
F0.00040016006402561027
sI125
F0.0016006402561024411
sI127
F0.00080032012805122054
sI128
F0.0012004801920768306
sI131
F0.0012004801920768306
sI132
F0.00040016006402561027
sI133
F0.00080032012805122054
sI134
F0.00080032012805122054
sI135
F0.00080032012805122054
sI137
F0.00040016006402561027
sI138
F0.00040016006402561027
sI139
F0.00040016006402561027
sI140
F0.00040016006402561027
sI141
F0.00040016006402561027
sI142
F0.0012004801920768306
sI143
F0.00080032012805122054
sI2192
F0.00040016006402561027
sI145
F0.00040016006402561027
sI146
F0.00040016006402561027
sI147
F0.00040016006402561027
sI149
F0.00040016006402561027
sI151
F0.00040016006402561027
sI152
F0.00080032012805122054
sI154
F0.0012004801920768306
sI155
F0.00040016006402561027
sI156
F0.00040016006402561027
sI157
F0.00040016006402561027
sI160
F0.00040016006402561027
sI162
F0.00040016006402561027
sI163
F0.00040016006402561027
sI164
F0.00040016006402561027
sI166
F0.00040016006402561027
sI167
F0.00040016006402561027
sI174
F0.00040016006402561027
sI177
F0.00040016006402561027
sI179
F0.00040016006402561027
sI181
F0.00080032012805122054
sI183
F0.00040016006402561027
sI184
F0.00040016006402561027
sI185
F0.00040016006402561027
sI186
F0.00080032012805122054
sI188
F0.00080032012805122054
sI191
F0.00040016006402561027
sI195
F0.00080032012805122054
sI199
F0.00040016006402561027
sI202
F0.00040016006402561027
sI208
F0.00040016006402561027
sI209
F0.00040016006402561027
sI212
F0.00080032012805122054
sI2261
F0.00040016006402561027
sI214
F0.00040016006402561027
sI218
F0.00040016006402561027
sI219
F0.00040016006402561027
sI221
F0.00080032012805122054
sI222
F0.00040016006402561027
sI224
F0.00040016006402561027
sI227
F0.00040016006402561027
sI228
F0.0012004801920768306
sI230
F0.00040016006402561027
sI234
F0.00040016006402561027
sI236
F0.00040016006402561027
sI238
F0.0012004801920768306
sI2088
F0.00040016006402561027
sI243
F0.00080032012805122054
sI245
F0.00040016006402561027
sI246
F0.00040016006402561027
sI248
F0.00040016006402561027
sI249
F0.00040016006402561027
sI250
F0.00040016006402561027
sI251
F0.00040016006402561027
sI16636
F0.00040016006402561027
sI6399
F0.00040016006402561027
sI264
F0.00040016006402561027
sI268
F0.00080032012805122054
sI272
F0.00040016006402561027
sI274
F0.00040016006402561027
sI4374
F0.00040016006402561027
sI280
F0.00040016006402561027
sI281
F0.00040016006402561027
sI288
F0.00040016006402561027
sI292
F0.00080032012805122054
sI293
F0.00080032012805122054
sI298
F0.00040016006402561027
sI300
F0.00080032012805122054
sI12594
F0.00040016006402561027
sI307
F0.00040016006402561027
sI308
F0.00040016006402561027
sI309
F0.00080032012805122054
sI4406
F0.00040016006402561027
sI314
F0.00040016006402561027
sI319
F0.0012004801920768306
sI2368
F0.00040016006402561027
sI324
F0.00040016006402561027
sI328
F0.00040016006402561027
sI330
F0.00040016006402561027
sI332
F0.00040016006402561027
sI333
F0.00040016006402561027
sI336
F0.00040016006402561027
sI2105
F0.00040016006402561027
sI344
F0.00040016006402561027
sI347
F0.00080032012805122054
sI355
F0.00040016006402561027
sI356
F0.00040016006402561027
sI358
F0.00040016006402561027
sI361
F0.00040016006402561027
sI4461
F0.00040016006402561027
sI367
F0.00040016006402561027
sI375
F0.00040016006402561027
sI376
F0.00040016006402561027
sI382
F0.00040016006402561027
sI383
F0.00040016006402561027
sI385
F0.00040016006402561027
sI388
F0.00040016006402561027
sI390
F0.00040016006402561027
sI394
F0.00040016006402561027
sI397
F0.00040016006402561027
sI403
F0.00040016006402561027
sI68
F0.0012004801920768306
sI410
F0.00040016006402561027
sI426
F0.00040016006402561027
sI430
F0.00040016006402561027
sI433
F0.00040016006402561027
sI436
F0.00040016006402561027
sI2485
F0.00040016006402561027
sI438
F0.00040016006402561027
sI2487
F0.00040016006402561027
sI442
F0.00040016006402561027
sI447
F0.00040016006402561027
sI2496
F0.00040016006402561027
sI450
F0.00040016006402561027
sI75
F0.00040016006402561027
sI455
F0.00040016006402561027
sI459
F0.00080032012805122054
sI462
F0.00040016006402561027
sI2516
F0.00040016006402561027
sI475
F0.00040016006402561027
sI476
F0.00080032012805122054
sI80
F0.00040016006402561027
sI487
F0.00040016006402561027
sI490
F0.00080032012805122054
sI492
F0.00040016006402561027
sI493
F0.00040016006402561027
sI2549
F0.00040016006402561027
sI14845
F0.00040016006402561027
sI510
F0.00080032012805122054
sI4612
F0.00040016006402561027
sI517
F0.00040016006402561027
sI529
F0.00040016006402561027
sI547
F0.00040016006402561027
sI551
F0.00040016006402561027
sI566
F0.00040016006402561027
sI575
F0.00080032012805122054
sI584
F0.00040016006402561027
sI585
F0.00040016006402561027
sI586
F0.00040016006402561027
sI588
F0.00040016006402561027
sI593
F0.00040016006402561027
sI597
F0.00040016006402561027
sI12889
F0.00040016006402561027
sI2660
F0.00040016006402561027
sI2666
F0.00040016006402561027
sI622
F0.00040016006402561027
sI627
F0.00040016006402561027
sI628
F0.00040016006402561027
sI636
F0.00040016006402561027
sI650
F0.00040016006402561027
sI26050
F0.00040016006402561027
sI6829
F0.00040016006402561027
sI687
F0.00040016006402561027
sI701
F0.00040016006402561027
sI2750
F0.00040016006402561027
sI2760
F0.00040016006402561027
sI714
F0.00040016006402561027
sI4558
F0.00040016006402561027
sI53977
F0.00040016006402561027
sI4849
F0.00040016006402561027
sI2804
F0.00040016006402561027
sI768
F0.00040016006402561027
sI2819
F0.00080032012805122054
sI784
F0.00040016006402561027
sI789
F0.00080032012805122054
sI794
F0.00040016006402561027
sI796
F0.00040016006402561027
sI2523
F0.00040016006402561027
sI805
F0.00040016006402561027
sI807
F0.00040016006402561027
sI819
F0.00080032012805122054
sI824
F0.00040016006402561027
sI437
F0.00040016006402561027
sI857
F0.00040016006402561027
sI860
F0.00040016006402561027
sI2913
F0.00040016006402561027
sI867
F0.00040016006402561027
sI2193
F0.00040016006402561027
sI21353
F0.00040016006402561027
sI877
F0.00040016006402561027
sI878
F0.00040016006402561027
sI906
F0.00040016006402561027
sI911
F0.00040016006402561027
sI915
F0.00040016006402561027
sI927
F0.00080032012805122054
sI939
F0.00040016006402561027
sI950
F0.00040016006402561027
sI8215
F0.00040016006402561027
sI976
F0.00040016006402561027
sI993
F0.00040016006402561027
sI1001
F0.0012004801920768306
sI1013
F0.00040016006402561027
sI3066
F0.00040016006402561027
sI5117
F0.00040016006402561027
sI1024
F0.00040016006402561027
sI1057
F0.00040016006402561027
sI1081
F0.00040016006402561027
sI2229
F0.00040016006402561027
sI1113
F0.00040016006402561027
sI1126
F0.00040016006402561027
sI1142
F0.00040016006402561027
sI1151
F0.00040016006402561027
sI3201
F0.00040016006402561027
sI1159
F0.00040016006402561027
sI1161
F0.00040016006402561027
sI3220
F0.00040016006402561027
sI5280
F0.00040016006402561027
sI17569
F0.00040016006402561027
sI1205
F0.00040016006402561027
sI4298
F0.00040016006402561027
sI3274
F0.00040016006402561027
sI1258
F0.00040016006402561027
sI1267
F0.00040016006402561027
sI1338
F0.00040016006402561027
sI1376
F0.00040016006402561027
sI1404
F0.00040016006402561027
sI1417
F0.00040016006402561027
sI3468
F0.00040016006402561027
sI25999
F0.00040016006402561027
sI3480
F0.00040016006402561027
sI9628
F0.00040016006402561027
sI1447
F0.00040016006402561027
sI3519
F0.00040016006402561027
sI1474
F0.00040016006402561027
sI6392
F0.00040016006402561027
sI3542
F0.00040016006402561027
sI3549
F0.00040016006402561027
sI1516
F0.00040016006402561027
sI1538
F0.00040016006402561027
sI50694
F0.00040016006402561027
sI3597
F0.00040016006402561027
sI2056
F0.00040016006402561027
sI1582
F0.00040016006402561027
sI1586
F0.00040016006402561027
sI3640
F0.00040016006402561027
sI1599
F0.00040016006402561027
sI612
F0.00040016006402561027
sI1679
F0.00040016006402561027
sI9877
F0.00040016006402561027
sI1691
F0.00040016006402561027
sI3745
F0.00040016006402561027
sI1726
F0.00040016006402561027
sI1731
F0.00040016006402561027
sI7879
F0.00040016006402561027
sI1763
F0.00040016006402561027
sI3829
F0.00040016006402561027
sI5880
F0.00040016006402561027
sI7370
F0.00040016006402561027
sI3844
F0.00040016006402561027
sI1846
F0.00040016006402561027
sI1851
F0.00040016006402561027
sI1862
F0.00040016006402561027
sI7482
F0.00040016006402561027
sI1899
F0.00040016006402561027
sI4008
F0.00040016006402561027
sI1965
F0.00040016006402561027
sI16316
F0.00040016006402561027
sI4054
F0.00040016006402561027
sI4432
F0.00040016006402561027
sI2039
F0.00040016006402561027
sag2
(g3
tRp6
I0
F0.24934245134139926
sI1
F0.088374539715938977
sI2
F0.052077853761178329
sI3
F0.039978958442924775
sI4
F0.03945291951604419
sI5
F0.026301946344029457
sI6
F0.025775907417148868
sI7
F0.01209889531825355
sI8
F0.014203051025775907
sI9
F0.020515518148342977
sI10
F0.01262493424513414
sI11
F0.0099947396107311938
sI12
F0.015781167806417674
sI13
F0.01209889531825355
sI14
F0.010520778537611783
sI15
F0.0089426617569700155
sI16
F0.010520778537611783
sI17
F0.0063124671225670698
sI18
F0.0042083114150447132
sI19
F0.0073645449763282481
sI20
F0.0099947396107311938
sI21
F0.0052603892688058915
sI22
F0.0052603892688058915
sI23
F0.0068385060494476589
sI24
F0.0068385060494476589
sI25
F0.0057864281956864806
sI26
F0.0042083114150447132
sI27
F0.0026301946344029457
sI28
F0.0047343503419253023
sI29
F0.0031562335612835349
sI30
F0.0047343503419253023
sI31
F0.0042083114150447132
sI32
F0.0010520778537611783
sI33
F0.0026301946344029457
sI34
F0.0047343503419253023
sI35
F0.0026301946344029457
sI36
F0.0021041557075223566
sI37
F0.0063124671225670698
sI38
F0.003682272488164124
sI39
F0.0021041557075223566
sI40
F0.0015781167806417674
sI41
F0.0042083114150447132
sI42
F0.0010520778537611783
sI43
F0.0015781167806417674
sI44
F0.0026301946344029457
sI45
F0.00052603892688058915
sI46
F0.0015781167806417674
sI47
F0.0021041557075223566
sI48
F0.0015781167806417674
sI49
F0.0026301946344029457
sI50
F0.0021041557075223566
sI51
F0.0015781167806417674
sI52
F0.0015781167806417674
sI53
F0.0021041557075223566
sI55
F0.0010520778537611783
sI56
F0.0015781167806417674
sI57
F0.00052603892688058915
sI58
F0.0010520778537611783
sI59
F0.0015781167806417674
sI60
F0.00052603892688058915
sI61
F0.0015781167806417674
sI62
F0.00052603892688058915
sI63
F0.0010520778537611783
sI64
F0.0021041557075223566
sI65
F0.00052603892688058915
sI66
F0.0021041557075223566
sI67
F0.0010520778537611783
sI68
F0.0010520778537611783
sI69
F0.0010520778537611783
sI70
F0.0010520778537611783
sI71
F0.00052603892688058915
sI72
F0.0010520778537611783
sI73
F0.0010520778537611783
sI74
F0.00052603892688058915
sI75
F0.0010520778537611783
sI76
F0.0015781167806417674
sI77
F0.00052603892688058915
sI78
F0.0010520778537611783
sI80
F0.0021041557075223566
sI81
F0.0015781167806417674
sI82
F0.0010520778537611783
sI83
F0.0021041557075223566
sI84
F0.0015781167806417674
sI85
F0.00052603892688058915
sI86
F0.0010520778537611783
sI87
F0.00052603892688058915
sI88
F0.00052603892688058915
sI91
F0.0010520778537611783
sI92
F0.00052603892688058915
sI93
F0.0015781167806417674
sI94
F0.00052603892688058915
sI95
F0.0010520778537611783
sI97
F0.0010520778537611783
sI100
F0.0010520778537611783
sI101
F0.0010520778537611783
sI102
F0.00052603892688058915
sI103
F0.0010520778537611783
sI104
F0.0010520778537611783
sI106
F0.00052603892688058915
sI108
F0.0010520778537611783
sI109
F0.0010520778537611783
sI110
F0.0010520778537611783
sI111
F0.0015781167806417674
sI113
F0.00052603892688058915
sI6163
F0.00052603892688058915
sI117
F0.00052603892688058915
sI119
F0.00052603892688058915
sI120
F0.00052603892688058915
sI121
F0.00052603892688058915
sI122
F0.0010520778537611783
sI124
F0.00052603892688058915
sI126
F0.00052603892688058915
sI128
F0.0015781167806417674
sI129
F0.0015781167806417674
sI130
F0.00052603892688058915
sI131
F0.00052603892688058915
sI132
F0.0010520778537611783
sI133
F0.0015781167806417674
sI134
F0.0015781167806417674
sI136
F0.0031562335612835349
sI137
F0.0015781167806417674
sI138
F0.00052603892688058915
sI139
F0.0015781167806417674
sI140
F0.00052603892688058915
sI141
F0.00052603892688058915
sI143
F0.00052603892688058915
sI144
F0.0021041557075223566
sI145
F0.0010520778537611783
sI147
F0.00052603892688058915
sI148
F0.0015781167806417674
sI149
F0.00052603892688058915
sI150
F0.00052603892688058915
sI151
F0.00052603892688058915
sI153
F0.0010520778537611783
sI154
F0.0010520778537611783
sI155
F0.00052603892688058915
sI158
F0.00052603892688058915
sI161
F0.00052603892688058915
sI163
F0.0015781167806417674
sI164
F0.00052603892688058915
sI168
F0.00052603892688058915
sI169
F0.00052603892688058915
sI171
F0.00052603892688058915
sI173
F0.00052603892688058915
sI174
F0.00052603892688058915
sI177
F0.00052603892688058915
sI178
F0.00052603892688058915
sI180
F0.00052603892688058915
sI181
F0.00052603892688058915
sI184
F0.00052603892688058915
sI185
F0.00052603892688058915
sI4283
F0.00052603892688058915
sI188
F0.00052603892688058915
sI190
F0.00052603892688058915
sI191
F0.0010520778537611783
sI192
F0.00052603892688058915
sI195
F0.0021041557075223566
sI198
F0.00052603892688058915
sI199
F0.00052603892688058915
sI202
F0.00052603892688058915
sI205
F0.00052603892688058915
sI206
F0.00052603892688058915
sI207
F0.00052603892688058915
sI208
F0.00052603892688058915
sI211
F0.0010520778537611783
sI14549
F0.00052603892688058915
sI216
F0.00052603892688058915
sI218
F0.00052603892688058915
sI219
F0.0015781167806417674
sI226
F0.00052603892688058915
sI227
F0.00052603892688058915
sI232
F0.00052603892688058915
sI234
F0.0010520778537611783
sI236
F0.00052603892688058915
sI239
F0.0010520778537611783
sI242
F0.00052603892688058915
sI244
F0.0010520778537611783
sI245
F0.00052603892688058915
sI20728
F0.00052603892688058915
sI2298
F0.00052603892688058915
sI251
F0.00052603892688058915
sI254
F0.0010520778537611783
sI259
F0.00052603892688058915
sI260
F0.00052603892688058915
sI263
F0.00052603892688058915
sI267
F0.00052603892688058915
sI4365
F0.00052603892688058915
sI270
F0.00052603892688058915
sI273
F0.00052603892688058915
sI274
F0.00052603892688058915
sI275
F0.0010520778537611783
sI278
F0.00052603892688058915
sI283
F0.00052603892688058915
sI284
F0.00052603892688058915
sI285
F0.00052603892688058915
sI288
F0.00052603892688058915
sI298
F0.00052603892688058915
sI301
F0.00052603892688058915
sI303
F0.00052603892688058915
sI305
F0.00052603892688058915
sI2355
F0.00052603892688058915
sI10550
F0.00052603892688058915
sI2100
F0.00052603892688058915
sI316
F0.00052603892688058915
sI319
F0.0015781167806417674
sI324
F0.00052603892688058915
sI327
F0.00052603892688058915
sI330
F0.00052603892688058915
sI344
F0.00052603892688058915
sI349
F0.0010520778537611783
sI351
F0.00052603892688058915
sI353
F0.0010520778537611783
sI8553
F0.00052603892688058915
sI363
F0.00052603892688058915
sI4461
F0.00052603892688058915
sI29039
F0.00052603892688058915
sI374
F0.0010520778537611783
sI376
F0.00052603892688058915
sI2111
F0.00052603892688058915
sI381
F0.00052603892688058915
sI382
F0.00052603892688058915
sI388
F0.00052603892688058915
sI398
F0.00052603892688058915
sI16790
F0.00052603892688058915
sI412
F0.00052603892688058915
sI421
F0.00052603892688058915
sI422
F0.00052603892688058915
sI425
F0.00052603892688058915
sI426
F0.00052603892688058915
sI431
F0.00052603892688058915
sI10680
F0.00052603892688058915
sI2497
F0.00052603892688058915
sI452
F0.0010520778537611783
sI457
F0.00052603892688058915
sI464
F0.00052603892688058915
sI471
F0.00052603892688058915
sI474
F0.0010520778537611783
sI475
F0.00052603892688058915
sI486
F0.00052603892688058915
sI487
F0.00052603892688058915
sI488
F0.00052603892688058915
sI498
F0.00052603892688058915
sI499
F0.00052603892688058915
sI10740
F0.00052603892688058915
sI501
F0.00052603892688058915
sI512
F0.00052603892688058915
sI541
F0.00052603892688058915
sI572
F0.00052603892688058915
sI53824
F0.00052603892688058915
sI577
F0.00052603892688058915
sI578
F0.00052603892688058915
sI581
F0.00052603892688058915
sI589
F0.00052603892688058915
sI600
F0.00052603892688058915
sI361
F0.00052603892688058915
sI2657
F0.00052603892688058915
sI610
F0.00052603892688058915
sI2660
F0.00052603892688058915
sI613
F0.00052603892688058915
sI617
F0.00052603892688058915
sI620
F0.00052603892688058915
sI625
F0.00052603892688058915
sI629
F0.00052603892688058915
sI632
F0.00052603892688058915
sI643
F0.00052603892688058915
sI646
F0.00052603892688058915
sI649
F0.00052603892688058915
sI653
F0.0010520778537611783
sI17049
F0.00052603892688058915
sI666
F0.00052603892688058915
sI670
F0.00052603892688058915
sI671
F0.00052603892688058915
sI673
F0.00052603892688058915
sI677
F0.00052603892688058915
sI2727
F0.00052603892688058915
sI21166
F0.00052603892688058915
sI700
F0.00052603892688058915
sI710
F0.00052603892688058915
sI711
F0.00052603892688058915
sI1143
F0.00052603892688058915
sI718
F0.00052603892688058915
sI721
F0.00052603892688058915
sI724
F0.00052603892688058915
sI726
F0.00052603892688058915
sI747
F0.00052603892688058915
sI770
F0.00052603892688058915
sI774
F0.00052603892688058915
sI784
F0.00052603892688058915
sI2850
F0.00052603892688058915
sI803
F0.00052603892688058915
sI807
F0.00052603892688058915
sI813
F0.00052603892688058915
sI821
F0.00052603892688058915
sI825
F0.00052603892688058915
sI860
F0.0010520778537611783
sI864
F0.00052603892688058915
sI887
F0.00052603892688058915
sI889
F0.00052603892688058915
sI11144
F0.00052603892688058915
sI921
F0.00052603892688058915
sI943
F0.00052603892688058915
sI11188
F0.00052603892688058915
sI500
F0.00052603892688058915
sI963
F0.00052603892688058915
sI970
F0.00052603892688058915
sI973
F0.00052603892688058915
sI984
F0.00052603892688058915
sI990
F0.00052603892688058915
sI992
F0.00052603892688058915
sI995
F0.00052603892688058915
sI997
F0.00052603892688058915
sI1016
F0.00052603892688058915
sI1034
F0.00052603892688058915
sI1060
F0.00052603892688058915
sI1092
F0.00052603892688058915
sI187
F0.0015781167806417674
sI3191
F0.00052603892688058915
sI5266
F0.00052603892688058915
sI1196
F0.00052603892688058915
sI1205
F0.00052603892688058915
sI15547
F0.00052603892688058915
sI7390
F0.00052603892688058915
sI9441
F0.00052603892688058915
sI5348
F0.00052603892688058915
sI3311
F0.00052603892688058915
sI21756
F0.00052603892688058915
sI1290
F0.00052603892688058915
sI1299
F0.00052603892688058915
sI2409
F0.00052603892688058915
sI3369
F0.00052603892688058915
sI1323
F0.00052603892688058915
sI1327
F0.00052603892688058915
sI13641
F0.00052603892688058915
sI3454
F0.00052603892688058915
sI1423
F0.00052603892688058915
sI1443
F0.00052603892688058915
sI1446
F0.00052603892688058915
sI3512
F0.00052603892688058915
sI5580
F0.00052603892688058915
sI5604
F0.00052603892688058915
sI1512
F0.00052603892688058915
sI1519
F0.00052603892688058915
sI1525
F0.00052603892688058915
sI5645
F0.00052603892688058915
sI36369
F0.00052603892688058915
sI3638
F0.00052603892688058915
sI11886
F0.00052603892688058915
sI24206
F0.00052603892688058915
sI3747
F0.00052603892688058915
sI5803
F0.00052603892688058915
sI1735
F0.00052603892688058915
sI1737
F0.00052603892688058915
sI3804
F0.00052603892688058915
sI1788
F0.00052603892688058915
sI7947
F0.00052603892688058915
sI3856
F0.00052603892688058915
sI1814
F0.00052603892688058915
sI10011
F0.00052603892688058915
sI1837
F0.00052603892688058915
sI1857
F0.00052603892688058915
sI36675
F0.00052603892688058915
sI3957
F0.00052603892688058915
sI1963
F0.00052603892688058915
sI1966
F0.00052603892688058915
sI2008
F0.00052603892688058915
sag2
(g3
tRp7
I0
F0.19506493506493505
sI1
F0.091948051948051945
sI2
F0.060519480519480522
sI3
F0.045454545454545456
sI4
F0.038701298701298702
sI5
F0.024935064935064935
sI6
F0.02181818181818182
sI7
F0.019220779220779222
sI8
F0.013246753246753246
sI9
F0.013766233766233767
sI10
F0.015584415584415584
sI11
F0.01090909090909091
sI12
F0.015324675324675324
sI13
F0.009870129870129871
sI14
F0.012727272727272728
sI15
F0.01090909090909091
sI16
F0.0080519480519480515
sI17
F0.0064935064935064939
sI18
F0.0064935064935064939
sI19
F0.0062337662337662338
sI20
F0.0059740259740259745
sI21
F0.0070129870129870134
sI22
F0.0070129870129870134
sI23
F0.0059740259740259745
sI24
F0.0085714285714285719
sI25
F0.0067532467532467532
sI26
F0.005454545454545455
sI27
F0.0038961038961038961
sI28
F0.0049350649350649355
sI29
F0.0057142857142857143
sI30
F0.004415584415584416
sI31
F0.0031168831168831169
sI32
F0.0033766233766233766
sI33
F0.004415584415584416
sI34
F0.0023376623376623377
sI35
F0.004415584415584416
sI36
F0.0028571428571428571
sI37
F0.0033766233766233766
sI38
F0.0012987012987012987
sI39
F0.0036363636363636364
sI40
F0.0031168831168831169
sI41
F0.0015584415584415584
sI42
F0.0023376623376623377
sI43
F0.0020779220779220779
sI44
F0.0025974025974025974
sI45
F0.0025974025974025974
sI46
F0.0028571428571428571
sI47
F0.0023376623376623377
sI48
F0.0046753246753246753
sI49
F0.0031168831168831169
sI50
F0.0023376623376623377
sI51
F0.0020779220779220779
sI52
F0.0025974025974025974
sI53
F0.0036363636363636364
sI54
F0.0018181818181818182
sI55
F0.0015584415584415584
sI56
F0.0015584415584415584
sI57
F0.0018181818181818182
sI58
F0.001038961038961039
sI59
F0.0020779220779220779
sI60
F0.0033766233766233766
sI61
F0.0023376623376623377
sI62
F0.0023376623376623377
sI63
F0.0023376623376623377
sI64
F0.0015584415584415584
sI65
F0.0012987012987012987
sI4162
F0.00025974025974025974
sI67
F0.0018181818181818182
sI68
F0.0012987012987012987
sI69
F0.0018181818181818182
sI70
F0.0020779220779220779
sI71
F0.0015584415584415584
sI72
F0.001038961038961039
sI73
F0.0015584415584415584
sI74
F0.0015584415584415584
sI10315
F0.00025974025974025974
sI76
F0.0012987012987012987
sI77
F0.0012987012987012987
sI78
F0.0018181818181818182
sI79
F0.0015584415584415584
sI80
F0.00051948051948051948
sI81
F0.00077922077922077922
sI82
F0.001038961038961039
sI83
F0.001038961038961039
sI84
F0.00025974025974025974
sI85
F0.0012987012987012987
sI86
F0.001038961038961039
sI87
F0.0015584415584415584
sI88
F0.0012987012987012987
sI89
F0.001038961038961039
sI91
F0.001038961038961039
sI92
F0.001038961038961039
sI93
F0.00025974025974025974
sI94
F0.00025974025974025974
sI95
F0.00051948051948051948
sI96
F0.001038961038961039
sI97
F0.001038961038961039
sI98
F0.00077922077922077922
sI99
F0.00025974025974025974
sI100
F0.0012987012987012987
sI101
F0.0012987012987012987
sI102
F0.0015584415584415584
sI103
F0.00025974025974025974
sI104
F0.00077922077922077922
sI106
F0.00025974025974025974
sI107
F0.001038961038961039
sI108
F0.00025974025974025974
sI109
F0.001038961038961039
sI110
F0.00051948051948051948
sI111
F0.00077922077922077922
sI112
F0.00051948051948051948
sI113
F0.00025974025974025974
sI114
F0.00077922077922077922
sI115
F0.00051948051948051948
sI116
F0.0012987012987012987
sI117
F0.00025974025974025974
sI118
F0.00025974025974025974
sI119
F0.00077922077922077922
sI120
F0.00077922077922077922
sI121
F0.0012987012987012987
sI122
F0.00051948051948051948
sI123
F0.001038961038961039
sI124
F0.00051948051948051948
sI125
F0.00077922077922077922
sI345
F0.00051948051948051948
sI127
F0.00025974025974025974
sI128
F0.00077922077922077922
sI129
F0.00051948051948051948
sI130
F0.00051948051948051948
sI131
F0.00077922077922077922
sI132
F0.00051948051948051948
sI133
F0.001038961038961039
sI134
F0.00077922077922077922
sI135
F0.001038961038961039
sI136
F0.00025974025974025974
sI137
F0.00025974025974025974
sI138
F0.00051948051948051948
sI139
F0.0012987012987012987
sI140
F0.0018181818181818182
sI141
F0.001038961038961039
sI142
F0.00077922077922077922
sI143
F0.00051948051948051948
sI144
F0.00077922077922077922
sI146
F0.00025974025974025974
sI147
F0.00051948051948051948
sI148
F0.00051948051948051948
sI149
F0.00077922077922077922
sI150
F0.0015584415584415584
sI6169
F0.00025974025974025974
sI152
F0.001038961038961039
sI153
F0.00051948051948051948
sI154
F0.00025974025974025974
sI155
F0.00051948051948051948
sI156
F0.00077922077922077922
sI157
F0.00025974025974025974
sI158
F0.00025974025974025974
sI160
F0.001038961038961039
sI161
F0.00051948051948051948
sI162
F0.00051948051948051948
sI163
F0.00051948051948051948
sI164
F0.00051948051948051948
sI165
F0.00077922077922077922
sI166
F0.00025974025974025974
sI167
F0.00025974025974025974
sI168
F0.00025974025974025974
sI8362
F0.00025974025974025974
sI171
F0.00025974025974025974
sI172
F0.00025974025974025974
sI173
F0.00025974025974025974
sI174
F0.00025974025974025974
sI175
F0.00025974025974025974
sI177
F0.00051948051948051948
sI178
F0.00025974025974025974
sI179
F0.00025974025974025974
sI180
F0.00025974025974025974
sI181
F0.00051948051948051948
sI182
F0.00025974025974025974
sI183
F0.00025974025974025974
sI184
F0.00025974025974025974
sI185
F0.001038961038961039
sI187
F0.00025974025974025974
sI188
F0.00051948051948051948
sI191
F0.00051948051948051948
sI192
F0.00051948051948051948
sI195
F0.00051948051948051948
sI196
F0.00051948051948051948
sI197
F0.00025974025974025974
sI199
F0.001038961038961039
sI200
F0.00025974025974025974
sI201
F0.0012987012987012987
sI202
F0.00077922077922077922
sI204
F0.00025974025974025974
sI205
F0.00077922077922077922
sI208
F0.00025974025974025974
sI209
F0.00025974025974025974
sI210
F0.00025974025974025974
sI211
F0.00051948051948051948
sI212
F0.00025974025974025974
sI213
F0.00025974025974025974
sI214
F0.0012987012987012987
sI215
F0.00051948051948051948
sI216
F0.001038961038961039
sI217
F0.00077922077922077922
sI218
F0.00077922077922077922
sI219
F0.00025974025974025974
sI220
F0.00025974025974025974
sI221
F0.00025974025974025974
sI222
F0.00077922077922077922
sI223
F0.00077922077922077922
sI224
F0.00025974025974025974
sI225
F0.00025974025974025974
sI226
F0.00025974025974025974
sI227
F0.00025974025974025974
sI228
F0.00051948051948051948
sI229
F0.00077922077922077922
sI230
F0.00025974025974025974
sI234
F0.00025974025974025974
sI236
F0.00025974025974025974
sI238
F0.00025974025974025974
sI239
F0.00051948051948051948
sI4336
F0.00025974025974025974
sI241
F0.00025974025974025974
sI4340
F0.00025974025974025974
sI246
F0.00025974025974025974
sI248
F0.00025974025974025974
sI249
F0.00025974025974025974
sI250
F0.00025974025974025974
sI252
F0.00025974025974025974
sI253
F0.00025974025974025974
sI254
F0.00025974025974025974
sI258
F0.00025974025974025974
sI259
F0.00025974025974025974
sI260
F0.00025974025974025974
sI261
F0.00051948051948051948
sI263
F0.00051948051948051948
sI2312
F0.00025974025974025974
sI266
F0.00051948051948051948
sI267
F0.00025974025974025974
sI268
F0.00051948051948051948
sI270
F0.00051948051948051948
sI273
F0.00025974025974025974
sI274
F0.00077922077922077922
sI275
F0.0012987012987012987
sI276
F0.00077922077922077922
sI279
F0.00025974025974025974
sI280
F0.00025974025974025974
sI281
F0.00051948051948051948
sI282
F0.00051948051948051948
sI283
F0.00051948051948051948
sI288
F0.00051948051948051948
sI291
F0.00025974025974025974
sI295
F0.00025974025974025974
sI298
F0.00025974025974025974
sI299
F0.00025974025974025974
sI302
F0.00077922077922077922
sI304
F0.00051948051948051948
sI305
F0.00025974025974025974
sI12339
F0.00025974025974025974
sI308
F0.00025974025974025974
sI309
F0.00025974025974025974
sI310
F0.00025974025974025974
sI313
F0.00025974025974025974
sI314
F0.00051948051948051948
sI315
F0.00025974025974025974
sI4414
F0.00025974025974025974
sI2367
F0.00025974025974025974
sI321
F0.00051948051948051948
sI323
F0.00025974025974025974
sI325
F0.00051948051948051948
sI326
F0.00025974025974025974
sI327
F0.00025974025974025974
sI4424
F0.00025974025974025974
sI329
F0.00025974025974025974
sI8523
F0.00025974025974025974
sI332
F0.00025974025974025974
sI334
F0.00025974025974025974
sI339
F0.00051948051948051948
sI341
F0.00025974025974025974
sI343
F0.00025974025974025974
sI344
F0.00025974025974025974
sI4441
F0.00025974025974025974
sI347
F0.00051948051948051948
sI10298
F0.00025974025974025974
sI350
F0.00025974025974025974
sI352
F0.00051948051948051948
sI354
F0.00025974025974025974
sI362
F0.00025974025974025974
sI363
F0.00051948051948051948
sI366
F0.00025974025974025974
sI368
F0.00051948051948051948
sI371
F0.00025974025974025974
sI374
F0.00051948051948051948
sI379
F0.00025974025974025974
sI380
F0.00025974025974025974
sI4477
F0.00025974025974025974
sI385
F0.00025974025974025974
sI388
F0.00025974025974025974
sI391
F0.00025974025974025974
sI392
F0.00025974025974025974
sI397
F0.00025974025974025974
sI399
F0.00077922077922077922
sI401
F0.00025974025974025974
sI402
F0.00025974025974025974
sI407
F0.00025974025974025974
sI408
F0.00025974025974025974
sI409
F0.00051948051948051948
sI411
F0.00025974025974025974
sI412
F0.00077922077922077922
sI2462
F0.00025974025974025974
sI415
F0.00025974025974025974
sI416
F0.00051948051948051948
sI417
F0.00025974025974025974
sI418
F0.00025974025974025974
sI419
F0.00025974025974025974
sI420
F0.00025974025974025974
sI422
F0.00051948051948051948
sI423
F0.00051948051948051948
sI426
F0.00051948051948051948
sI427
F0.00077922077922077922
sI428
F0.00051948051948051948
sI431
F0.00025974025974025974
sI434
F0.00077922077922077922
sI437
F0.00025974025974025974
sI439
F0.00025974025974025974
sI440
F0.00025974025974025974
sI442
F0.00025974025974025974
sI443
F0.00025974025974025974
sI444
F0.00025974025974025974
sI445
F0.00025974025974025974
sI446
F0.00025974025974025974
sI448
F0.00025974025974025974
sI75
F0.00077922077922077922
sI453
F0.00025974025974025974
sI455
F0.00025974025974025974
sI457
F0.00025974025974025974
sI459
F0.00025974025974025974
sI460
F0.00025974025974025974
sI2466
F0.00025974025974025974
sI462
F0.00025974025974025974
sI464
F0.00051948051948051948
sI467
F0.00025974025974025974
sI475
F0.00025974025974025974
sI479
F0.00025974025974025974
sI483
F0.00051948051948051948
sI486
F0.00025974025974025974
sI487
F0.00025974025974025974
sI490
F0.00025974025974025974
sI6563
F0.00025974025974025974
sI496
F0.00025974025974025974
sI500
F0.00025974025974025974
sI2550
F0.00025974025974025974
sI508
F0.00051948051948051948
sI509
F0.00025974025974025974
sI512
F0.00025974025974025974
sI516
F0.00025974025974025974
sI517
F0.00051948051948051948
sI526
F0.00051948051948051948
sI530
F0.00025974025974025974
sI535
F0.00025974025974025974
sI540
F0.00025974025974025974
sI4641
F0.00025974025974025974
sI548
F0.00025974025974025974
sI550
F0.00025974025974025974
sI4188
F0.00025974025974025974
sI2605
F0.00025974025974025974
sI559
F0.00025974025974025974
sI560
F0.00051948051948051948
sI561
F0.00025974025974025974
sI562
F0.00025974025974025974
sI564
F0.00051948051948051948
sI570
F0.00051948051948051948
sI572
F0.00025974025974025974
sI575
F0.00025974025974025974
sI578
F0.00025974025974025974
sI2630
F0.00025974025974025974
sI584
F0.00025974025974025974
sI588
F0.00025974025974025974
sI589
F0.00025974025974025974
sI590
F0.00025974025974025974
sI2640
F0.00025974025974025974
sI593
F0.00025974025974025974
sI596
F0.00025974025974025974
sI599
F0.00025974025974025974
sI604
F0.00025974025974025974
sI611
F0.00025974025974025974
sI616
F0.00025974025974025974
sI617
F0.00025974025974025974
sI618
F0.00051948051948051948
sI622
F0.00025974025974025974
sI625
F0.00025974025974025974
sI626
F0.00025974025974025974
sI627
F0.00025974025974025974
sI639
F0.00025974025974025974
sI6788
F0.00025974025974025974
sI646
F0.00025974025974025974
sI654
F0.00025974025974025974
sI451
F0.00025974025974025974
sI660
F0.00025974025974025974
sI662
F0.00025974025974025974
sI6811
F0.00025974025974025974
sI671
F0.00025974025974025974
sI672
F0.00025974025974025974
sI678
F0.00025974025974025974
sI684
F0.00025974025974025974
sI2737
F0.00051948051948051948
sI697
F0.00025974025974025974
sI699
F0.00025974025974025974
sI707
F0.00025974025974025974
sI709
F0.00025974025974025974
sI8903
F0.00025974025974025974
sI10954
F0.00025974025974025974
sI2778
F0.00025974025974025974
sI731
F0.00025974025974025974
sI734
F0.00051948051948051948
sI739
F0.00025974025974025974
sI748
F0.00025974025974025974
sI752
F0.00025974025974025974
sI2802
F0.00025974025974025974
sI2804
F0.00025974025974025974
sI126
F0.00051948051948051948
sI760
F0.00025974025974025974
sI2824
F0.00025974025974025974
sI1155
F0.00025974025974025974
sI794
F0.00025974025974025974
sI6945
F0.00025974025974025974
sI802
F0.00025974025974025974
sI2852
F0.00025974025974025974
sI810
F0.00025974025974025974
sI817
F0.00025974025974025974
sI4914
F0.00025974025974025974
sI825
F0.00025974025974025974
sI827
F0.00025974025974025974
sI832
F0.00025974025974025974
sI6985
F0.00025974025974025974
sI846
F0.00025974025974025974
sI848
F0.00025974025974025974
sI849
F0.00025974025974025974
sI852
F0.00025974025974025974
sI2906
F0.00025974025974025974
sI871
F0.00051948051948051948
sI711
F0.00025974025974025974
sI882
F0.00025974025974025974
sI2195
F0.00025974025974025974
sI895
F0.00025974025974025974
sI897
F0.00025974025974025974
sI4995
F0.00025974025974025974
sI151
F0.00025974025974025974
sI909
F0.00025974025974025974
sI493
F0.00025974025974025974
sI915
F0.00025974025974025974
sI922
F0.00025974025974025974
sI925
F0.00051948051948051948
sI5029
F0.00025974025974025974
sI1522
F0.00025974025974025974
sI953
F0.00025974025974025974
sI959
F0.00025974025974025974
sI961
F0.00025974025974025974
sI2146
F0.00025974025974025974
sI7116
F0.00025974025974025974
sI978
F0.00025974025974025974
sI5075
F0.00025974025974025974
sI984
F0.00025974025974025974
sI19424
F0.00025974025974025974
sI1002
F0.00025974025974025974
sI3059
F0.00025974025974025974
sI1012
F0.00025974025974025974
sI170
F0.00051948051948051948
sI1028
F0.00025974025974025974
sI1036
F0.00025974025974025974
sI24994
F0.00025974025974025974
sI42000
F0.00025974025974025974
sI1057
F0.00025974025974025974
sI2225
F0.00025974025974025974
sI1084
F0.00025974025974025974
sI1099
F0.00025974025974025974
sI1110
F0.00025974025974025974
sI2233
F0.00025974025974025974
sI3162
F0.00025974025974025974
sI1127
F0.00025974025974025974
sI1131
F0.00025974025974025974
sI1132
F0.00025974025974025974
sI2152
F0.00025974025974025974
sI9347
F0.00025974025974025974
sI1157
F0.00025974025974025974
sI1159
F0.00025974025974025974
sI5257
F0.00025974025974025974
sI878
F0.00051948051948051948
sI1179
F0.00025974025974025974
sI1181
F0.00025974025974025974
sI3235
F0.00025974025974025974
sI1199
F0.00025974025974025974
sI1209
F0.00025974025974025974
sI1226
F0.00025974025974025974
sI1227
F0.00025974025974025974
sI1228
F0.00025974025974025974
sI1235
F0.00025974025974025974
sI3312
F0.00025974025974025974
sI3314
F0.00025974025974025974
sI1267
F0.00025974025974025974
sI1268
F0.00025974025974025974
sI7416
F0.00025974025974025974
sI1275
F0.00025974025974025974
sI1288
F0.00025974025974025974
sI1295
F0.00025974025974025974
sI1306
F0.00025974025974025974
sI1313
F0.00025974025974025974
sI2268
F0.00025974025974025974
sI1325
F0.00025974025974025974
sI318
F0.00025974025974025974
sI1376
F0.00025974025974025974
sI1383
F0.00025974025974025974
sI1403
F0.00025974025974025974
sI1421
F0.00025974025974025974
sI3479
F0.00025974025974025974
sI1433
F0.00025974025974025974
sI3485
F0.00025974025974025974
sI9631
F0.00025974025974025974
sI1443
F0.00025974025974025974
sI582
F0.00025974025974025974
sI1449
F0.00025974025974025974
sI1459
F0.00025974025974025974
sI244
F0.00025974025974025974
sI5587
F0.00025974025974025974
sI17881
F0.00025974025974025974
sI1507
F0.00025974025974025974
sI1514
F0.00025974025974025974
sI1518
F0.00025974025974025974
sI5618
F0.00025974025974025974
sI5620
F0.00025974025974025974
sI7700
F0.00025974025974025974
sI1559
F0.00025974025974025974
sI1560
F0.00025974025974025974
sI1578
F0.00025974025974025974
sI1596
F0.00025974025974025974
sI12465
F0.00025974025974025974
sI1612
F0.00025974025974025974
sI7796
F0.00025974025974025974
sI1671
F0.00025974025974025974
sI38536
F0.00025974025974025974
sI1675
F0.00025974025974025974
sI22159
F0.00025974025974025974
sI9885
F0.00025974025974025974
sI3752
F0.00025974025974025974
sI3765
F0.00025974025974025974
sI1719
F0.00025974025974025974
sI1720
F0.00025974025974025974
sI14022
F0.00025974025974025974
sI972
F0.00051948051948051948
sI1745
F0.00025974025974025974
sI7923
F0.00025974025974025974
sI1782
F0.00025974025974025974
sI14077
F0.00025974025974025974
sI1795
F0.00025974025974025974
sI1799
F0.00025974025974025974
sI1826
F0.00025974025974025974
sI12069
F0.00025974025974025974
sI1672
F0.00025974025974025974
sI307
F0.00025974025974025974
sI1868
F0.00025974025974025974
sI1902
F0.00025974025974025974
sI14197
F0.00025974025974025974
sI319
F0.00025974025974025974
sI1916
F0.00025974025974025974
sI8061
F0.00025974025974025974
sI1919
F0.00025974025974025974
sI1923
F0.00025974025974025974
sI1925
F0.00025974025974025974
sI1932
F0.00025974025974025974
sI1937
F0.00025974025974025974
sI328
F0.00025974025974025974
sI1980
F0.00025974025974025974
sI66
F0.0020779220779220779
sI1999
F0.00025974025974025974
sI2004
F0.00025974025974025974
sI2006
F0.00025974025974025974
sI8185
F0.00025974025974025974
sI4065
F0.00025974025974025974
sI2019
F0.00025974025974025974
sI2027
F0.00025974025974025974
sI4089
F0.00025974025974025974
sI2045
F0.00025974025974025974
sag2
(g3
tRp8
I0
F0.26620209059233452
sI1
F0.11637630662020906
sI2
F0.066898954703832753
sI3
F0.043205574912891988
sI4
F0.030662020905923345
sI5
F0.027177700348432057
sI6
F0.022996515679442508
sI7
F0.022996515679442508
sI8
F0.018118466898954706
sI9
F0.023693379790940768
sI10
F0.023693379790940768
sI11
F0.013937282229965157
sI12
F0.0090592334494773528
sI13
F0.011846689895470384
sI14
F0.0083623693379790941
sI15
F0.0069686411149825784
sI16
F0.0083623693379790941
sI17
F0.0097560975609756097
sI18
F0.0076655052264808362
sI19
F0.0069686411149825784
sI20
F0.0055749128919860627
sI21
F0.0048780487804878049
sI22
F0.0055749128919860627
sI23
F0.0062717770034843206
sI24
F0.010452961672473868
sI25
F0.0048780487804878049
sI26
F0.0013937282229965157
sI27
F0.0062717770034843206
sI28
F0.0062717770034843206
sI29
F0.0027874564459930314
sI30
F0.0034843205574912892
sI31
F0.0020905923344947735
sI32
F0.0020905923344947735
sI33
F0.0020905923344947735
sI34
F0.0027874564459930314
sI35
F0.004181184668989547
sI36
F0.0013937282229965157
sI37
F0.0020905923344947735
sI38
F0.0055749128919860627
sI39
F0.0013937282229965157
sI40
F0.0020905923344947735
sI41
F0.0013937282229965157
sI42
F0.0013937282229965157
sI43
F0.0027874564459930314
sI44
F0.00069686411149825784
sI45
F0.0020905923344947735
sI46
F0.0027874564459930314
sI47
F0.00069686411149825784
sI48
F0.0020905923344947735
sI49
F0.0020905923344947735
sI50
F0.0013937282229965157
sI51
F0.0013937282229965157
sI513
F0.00069686411149825784
sI53
F0.0013937282229965157
sI54
F0.0013937282229965157
sI55
F0.0020905923344947735
sI56
F0.0013937282229965157
sI57
F0.0013937282229965157
sI58
F0.00069686411149825784
sI59
F0.0020905923344947735
sI60
F0.0013937282229965157
sI61
F0.0013937282229965157
sI62
F0.0013937282229965157
sI63
F0.0013937282229965157
sI64
F0.00069686411149825784
sI65
F0.0013937282229965157
sI66
F0.0013937282229965157
sI67
F0.0013937282229965157
sI69
F0.0013937282229965157
sI70
F0.0020905923344947735
sI71
F0.00069686411149825784
sI72
F0.00069686411149825784
sI74
F0.0013937282229965157
sI75
F0.00069686411149825784
sI76
F0.0013937282229965157
sI78
F0.00069686411149825784
sI81
F0.00069686411149825784
sI595
F0.0013937282229965157
sI84
F0.00069686411149825784
sI86
F0.00069686411149825784
sI88
F0.00069686411149825784
sI90
F0.00069686411149825784
sI4623
F0.00069686411149825784
sI92
F0.00069686411149825784
sI605
F0.00069686411149825784
sI95
F0.00069686411149825784
sI96
F0.00069686411149825784
sI97
F0.00069686411149825784
sI102
F0.00069686411149825784
sI3174
F0.00069686411149825784
sI103
F0.00069686411149825784
sI105
F0.0013937282229965157
sI1642
F0.00069686411149825784
sI108
F0.00069686411149825784
sI110
F0.0013937282229965157
sI1652
F0.00069686411149825784
sI118
F0.0013937282229965157
sI119
F0.0027874564459930314
sI120
F0.00069686411149825784
sI121
F0.00069686411149825784
sI3194
F0.00069686411149825784
sI26235
F0.00069686411149825784
sI125
F0.00069686411149825784
sI126
F0.0020905923344947735
sI127
F0.0013937282229965157
sI129
F0.00069686411149825784
sI131
F0.00069686411149825784
sI3207
F0.00069686411149825784
sI136
F0.00069686411149825784
sI141
F0.0013937282229965157
sI142
F0.0013937282229965157
sI145
F0.00069686411149825784
sI146
F0.00069686411149825784
sI1171
F0.00069686411149825784
sI151
F0.00069686411149825784
sI1688
F0.00069686411149825784
sI2201
F0.00069686411149825784
sI155
F0.00069686411149825784
sI156
F0.00069686411149825784
sI1386
F0.00069686411149825784
sI670
F0.00069686411149825784
sI4256
F0.00069686411149825784
sI161
F0.00069686411149825784
sI168
F0.00069686411149825784
sI171
F0.00069686411149825784
sI2732
F0.00069686411149825784
sI1710
F0.00069686411149825784
sI688
F0.00069686411149825784
sI177
F0.00069686411149825784
sI1203
F0.00069686411149825784
sI181
F0.0013937282229965157
sI182
F0.00069686411149825784
sI183
F0.00069686411149825784
sI186
F0.00069686411149825784
sI700
F0.00069686411149825784
sI190
F0.00069686411149825784
sI192
F0.00069686411149825784
sI193
F0.00069686411149825784
sI8898
F0.00069686411149825784
sI195
F0.00069686411149825784
sI196
F0.00069686411149825784
sI2757
F0.00069686411149825784
sI199
F0.00069686411149825784
sI200
F0.00069686411149825784
sI201
F0.00069686411149825784
sI719
F0.00069686411149825784
sI2424
F0.00069686411149825784
sI211
F0.00069686411149825784
sI215
F0.0013937282229965157
sI728
F0.00069686411149825784
sI217
F0.00069686411149825784
sI207
F0.00069686411149825784
sI220
F0.00069686411149825784
sI2782
F0.00069686411149825784
sI2853
F0.00069686411149825784
sI945
F0.00069686411149825784
sI123
F0.00069686411149825784
sI3302
F0.00069686411149825784
sI2565
F0.00069686411149825784
sI238
F0.00069686411149825784
sI241
F0.00069686411149825784
sI6355
F0.00069686411149825784
sI1285
F0.00069686411149825784
sI7724
F0.00069686411149825784
sI266
F0.00069686411149825784
sI268
F0.00069686411149825784
sI272
F0.00069686411149825784
sI280
F0.00069686411149825784
sI282
F0.00069686411149825784
sI7453
F0.00069686411149825784
sI1312
F0.00069686411149825784
sI290
F0.00069686411149825784
sI3363
F0.00069686411149825784
sI293
F0.00069686411149825784
sI3367
F0.00069686411149825784
sI532
F0.00069686411149825784
sI777
F0.00069686411149825784
sI1586
F0.0013937282229965157
sI2696
F0.00069686411149825784
sI306
F0.00069686411149825784
sI5683
F0.00069686411149825784
sI2360
F0.00069686411149825784
sI565
F0.00069686411149825784
sI1857
F0.00069686411149825784
sI329
F0.0013937282229965157
sI330
F0.00069686411149825784
sI334
F0.00069686411149825784
sI2616
F0.00069686411149825784
sI23890
F0.00069686411149825784
sI4950
F0.00069686411149825784
sI349
F0.00069686411149825784
sI2107
F0.00069686411149825784
sI357
F0.00069686411149825784
sI13671
F0.00069686411149825784
sI5480
F0.00069686411149825784
sI362
F0.00069686411149825784
sI3435
F0.00069686411149825784
sI6514
F0.00069686411149825784
sI147
F0.00069686411149825784
sI372
F0.00069686411149825784
sI888
F0.00069686411149825784
sI9597
F0.00069686411149825784
sI383
F0.00069686411149825784
sI1600
F0.00069686411149825784
sI179
F0.00069686411149825784
sI10333
F0.00069686411149825784
sI22586
F0.00069686411149825784
sI153
F0.00069686411149825784
sI413
F0.00069686411149825784
sI427
F0.00069686411149825784
sI428
F0.00069686411149825784
sI2461
F0.00069686411149825784
sI5553
F0.00069686411149825784
sI243
F0.00069686411149825784
sI4026
F0.00069686411149825784
sI443
F0.00069686411149825784
sI1987
F0.00069686411149825784
sI3524
F0.00069686411149825784
sI11881
F0.00069686411149825784
sI462
F0.00069686411149825784
sI469
F0.00069686411149825784
sI1243
F0.00069686411149825784
sI4061
F0.00069686411149825784
sI478
F0.00069686411149825784
sI5089
F0.00069686411149825784
sI8677
F0.00069686411149825784
sI488
F0.00069686411149825784
sI1002
F0.00069686411149825784
sI491
F0.00069686411149825784
sI1005
F0.00069686411149825784
sI5614
F0.00069686411149825784
sI3056
F0.00069686411149825784
sI499
F0.00069686411149825784
sI502
F0.00069686411149825784
sI1023
F0.00069686411149825784
sa.