(lp1
ccollections
defaultdict
p2
(c__builtin__
float
p3
tRp4
I0
F0.26727584237578528
sI1
F0.10051399200456881
sI2
F0.067390062821245003
sI3
F0.051399200456881781
sI4
F0.026270702455739578
sI5
F0.023986293546544833
sI6
F0.019988577955454025
sI7
F0.01770416904625928
sI8
F0.019988577955454025
sI9
F0.0085665334094802963
sI10
F0.0091376356367789836
sI11
F0.0097087378640776691
sI12
F0.0079954311821816108
sI13
F0.0085665334094802963
sI14
F0.011422044545973729
sI15
F0.0074243289548829245
sI16
F0.0074243289548829245
sI17
F0.0074243289548829245
sI18
F0.0034266133637921186
sI19
F0.0091376356367789836
sI20
F0.0039977155910908054
sI21
F0.0062821245002855509
sI22
F0.0039977155910908054
sI23
F0.0085665334094802963
sI24
F0.0085665334094802963
sI25
F0.0062821245002855509
sI26
F0.0057110222729868645
sI27
F0.0045688178183894918
sI28
F0.0062821245002855509
sI29
F0.0017133066818960593
sI30
F0.0039977155910908054
sI31
F0.0022844089091947459
sI32
F0.0022844089091947459
sI33
F0.0011422044545973729
sI34
F0.00057110222729868647
sI35
F0.0045688178183894918
sI36
F0.0017133066818960593
sI37
F0.0011422044545973729
sI1024
F0.00057110222729868647
sI39
F0.0028555111364934323
sI40
F0.0011422044545973729
sI41
F0.0034266133637921186
sI42
F0.0062821245002855509
sI43
F0.0011422044545973729
sI44
F0.0017133066818960593
sI45
F0.0022844089091947459
sI46
F0.00057110222729868647
sI47
F0.0011422044545973729
sI48
F0.0022844089091947459
sI49
F0.0034266133637921186
sI50
F0.0028555111364934323
sI51
F0.0034266133637921186
sI52
F0.00057110222729868647
sI53
F0.0034266133637921186
sI54
F0.0017133066818960593
sI55
F0.0017133066818960593
sI3640
F0.00057110222729868647
sI57
F0.0011422044545973729
sI58
F0.0034266133637921186
sI59
F0.0017133066818960593
sI60
F0.0011422044545973729
sI61
F0.0017133066818960593
sI62
F0.0011422044545973729
sI63
F0.0028555111364934323
sI64
F0.0028555111364934323
sI65
F0.0017133066818960593
sI66
F0.0017133066818960593
sI67
F0.00057110222729868647
sI2116
F0.00057110222729868647
sI69
F0.00057110222729868647
sI70
F0.00057110222729868647
sI71
F0.0011422044545973729
sI72
F0.0017133066818960593
sI74
F0.0011422044545973729
sI8267
F0.00057110222729868647
sI76
F0.00057110222729868647
sI77
F0.00057110222729868647
sI78
F0.0017133066818960593
sI3597
F0.00057110222729868647
sI12368
F0.00057110222729868647
sI81
F0.0017133066818960593
sI82
F0.0017133066818960593
sI83
F0.00057110222729868647
sI85
F0.00057110222729868647
sI86
F0.0017133066818960593
sI87
F0.00057110222729868647
sI88
F0.00057110222729868647
sI89
F0.0011422044545973729
sI90
F0.0011422044545973729
sI91
F0.0022844089091947459
sI92
F0.00057110222729868647
sI95
F0.0017133066818960593
sI2657
F0.00057110222729868647
sI99
F0.0011422044545973729
sI2660
F0.00057110222729868647
sI101
F0.0011422044545973729
sI1126
F0.00057110222729868647
sI529
F0.00057110222729868647
sI104
F0.00057110222729868647
sI105
F0.0017133066818960593
sI2666
F0.00057110222729868647
sI108
F0.00057110222729868647
sI110
F0.00057110222729868647
sI512
F0.00057110222729868647
sI112
F0.00057110222729868647
sI113
F0.00057110222729868647
sI114
F0.0011422044545973729
sI115
F0.00057110222729868647
sI117
F0.00057110222729868647
sI1142
F0.00057110222729868647
sI119
F0.00057110222729868647
sI120
F0.00057110222729868647
sI121
F0.0011422044545973729
sI447
F0.00057110222729868647
sI125
F0.0017133066818960593
sI1151
F0.00057110222729868647
sI128
F0.00057110222729868647
sI3201
F0.00057110222729868647
sI131
F0.0011422044545973729
sI132
F0.0011422044545973729
sI133
F0.0011422044545973729
sI134
F0.0011422044545973729
sI1159
F0.00057110222729868647
sI2696
F0.00057110222729868647
sI138
F0.00057110222729868647
sI139
F0.00057110222729868647
sI140
F0.00057110222729868647
sI1474
F0.00057110222729868647
sI142
F0.00057110222729868647
sI1679
F0.00057110222729868647
sI144
F0.00057110222729868647
sI145
F0.0011422044545973729
sI146
F0.00057110222729868647
sI147
F0.00057110222729868647
sI148
F0.00057110222729868647
sI1113
F0.00057110222729868647
sI151
F0.00057110222729868647
sI152
F0.00057110222729868647
sI153
F0.00057110222729868647
sI1691
F0.00057110222729868647
sI157
F0.00057110222729868647
sI158
F0.00057110222729868647
sI160
F0.00057110222729868647
sI3745
F0.00057110222729868647
sI163
F0.00057110222729868647
sI164
F0.00057110222729868647
sI167
F0.00057110222729868647
sI1057
F0.00057110222729868647
sI6829
F0.00057110222729868647
sI174
F0.0011422044545973729
sI177
F0.00057110222729868647
sI179
F0.0011422044545973729
sI180
F0.00057110222729868647
sI181
F0.00057110222729868647
sI183
F0.00057110222729868647
sI184
F0.00057110222729868647
sI185
F0.00057110222729868647
sI3274
F0.00057110222729868647
sI2750
F0.00057110222729868647
sI191
F0.00057110222729868647
sI192
F0.00057110222729868647
sI8736
F0.00057110222729868647
sI195
F0.00057110222729868647
sI532
F0.00057110222729868647
sI199
F0.0022844089091947459
sI7370
F0.00057110222729868647
sI143
F0.00057110222729868647
sI208
F0.00057110222729868647
sI993
F0.00057110222729868647
sI547
F0.00057110222729868647
sI212
F0.00057110222729868647
sI214
F0.00057110222729868647
sI215
F0.00057110222729868647
sI12889
F0.00057110222729868647
sI53977
F0.00057110222729868647
sI218
F0.00057110222729868647
sI219
F0.00057110222729868647
sI4316
F0.00057110222729868647
sI221
F0.0011422044545973729
sI222
F0.00057110222729868647
sI805
F0.00057110222729868647
sI737
F0.00057110222729868647
sI227
F0.00057110222729868647
sI228
F0.00057110222729868647
sI38
F0.0017133066818960593
sI307
F0.00057110222729868647
sI1256
F0.00057110222729868647
sI234
F0.0011422044545973729
sI551
F0.00057110222729868647
sI236
F0.00057110222729868647
sI238
F0.0011422044545973729
sI637
F0.00057110222729868647
sI240
F0.00057110222729868647
sI4849
F0.00057110222729868647
sI242
F0.00057110222729868647
sI243
F0.00057110222729868647
sI2804
F0.00057110222729868647
sI3829
F0.00057110222729868647
sI246
F0.00057110222729868647
sI2088
F0.00057110222729868647
sI5880
F0.00057110222729868647
sI249
F0.00057110222729868647
sI639
F0.00057110222729868647
sI16636
F0.00057110222729868647
sI6399
F0.00057110222729868647
sI768
F0.00057110222729868647
sI2819
F0.00057110222729868647
sI3844
F0.00057110222729868647
sI263
F0.00057110222729868647
sI264
F0.00057110222729868647
sI111
F0.00057110222729868647
sI268
F0.0011422044545973729
sI427
F0.00057110222729868647
sI1295
F0.00057110222729868647
sI784
F0.00057110222729868647
sI245
F0.00057110222729868647
sI789
F0.0011422044545973729
sI280
F0.00057110222729868647
sI796
F0.00057110222729868647
sI4298
F0.00057110222729868647
sI1987
F0.00057110222729868647
sI3363
F0.00057110222729868647
sI292
F0.00057110222729868647
sI293
F0.00057110222729868647
sI4323
F0.00057110222729868647
sI1726
F0.00057110222729868647
sI135
F0.0011422044545973729
sI300
F0.00057110222729868647
sI1586
F0.00057110222729868647
sI817
F0.00057110222729868647
sI819
F0.0011422044545973729
sI309
F0.0011422044545973729
sI1846
F0.00057110222729868647
sI7482
F0.00057110222729868647
sI906
F0.00057110222729868647
sI1077
F0.00057110222729868647
sI2368
F0.00057110222729868647
sI79
F0.00057110222729868647
sI1859
F0.00057110222729868647
sI566
F0.00057110222729868647
sI701
F0.00057110222729868647
sI2056
F0.00057110222729868647
sI328
F0.00057110222729868647
sI330
F0.00057110222729868647
sI332
F0.00057110222729868647
sI333
F0.00057110222729868647
sI584
F0.0011422044545973729
sI336
F0.00057110222729868647
sI56
F0.0011422044545973729
sI1763
F0.00057110222729868647
sI344
F0.00057110222729868647
sI347
F0.0011422044545973729
sI860
F0.0011422044545973729
sI1376
F0.00057110222729868647
sI1205
F0.00057110222729868647
sI867
F0.00057110222729868647
sI597
F0.00057110222729868647
sI97
F0.00057110222729868647
sI5480
F0.00057110222729868647
sI21353
F0.00057110222729868647
sI438
F0.00057110222729868647
sI1899
F0.00057110222729868647
sI877
F0.00057110222729868647
sI878
F0.00057110222729868647
sI319
F0.0011422044545973729
sI5490
F0.00057110222729868647
sI887
F0.00057110222729868647
sI1684
F0.00057110222729868647
sI575
F0.00057110222729868647
sI1404
F0.00057110222729868647
sI1258
F0.00057110222729868647
sI382
F0.00057110222729868647
sI2229
F0.00057110222729868647
sI900
F0.00057110222729868647
sI390
F0.00057110222729868647
sI2485
F0.00057110222729868647
sI394
F0.00057110222729868647
sI3468
F0.00057110222729868647
sI911
F0.00057110222729868647
sI5280
F0.00057110222729868647
sI915
F0.00057110222729868647
sI68
F0.00057110222729868647
sI410
F0.00057110222729868647
sI1582
F0.00057110222729868647
sI9628
F0.00057110222729868647
sI927
F0.00057110222729868647
sI155
F0.00057110222729868647
sI1447
F0.00057110222729868647
sI412
F0.00057110222729868647
sI939
F0.00057110222729868647
sI1965
F0.00057110222729868647
sI430
F0.00057110222729868647
sI431
F0.00057110222729868647
sI433
F0.00057110222729868647
sI434
F0.00057110222729868647
sI436
F0.00057110222729868647
sI437
F0.00057110222729868647
sI950
F0.00057110222729868647
sI2487
F0.00057110222729868647
sI202
F0.00057110222729868647
sI355
F0.00057110222729868647
sI442
F0.00057110222729868647
sI586
F0.00057110222729868647
sI3519
F0.00057110222729868647
sI2496
F0.00057110222729868647
sI100
F0.00057110222729868647
sI26050
F0.00057110222729868647
sI75
F0.0011422044545973729
sI17569
F0.00057110222729868647
sI714
F0.00057110222729868647
sI459
F0.00057110222729868647
sI4558
F0.00057110222729868647
sI976
F0.00057110222729868647
sI248
F0.00057110222729868647
sI475
F0.00057110222729868647
sI476
F0.00057110222729868647
sI627
F0.00057110222729868647
sI80
F0.00057110222729868647
sI593
F0.00057110222729868647
sI1001
F0.0011422044545973729
sI490
F0.0011422044545973729
sI493
F0.00057110222729868647
sI272
F0.00057110222729868647
sI4432
F0.00057110222729868647
sI2549
F0.00057110222729868647
sI3066
F0.00057110222729868647
sI5117
F0.00057110222729868647
sI510
F0.00057110222729868647
sI1599
F0.00057110222729868647
sag2
(g3
tRp5
I0
F0.13880742913000976
sI1
F0.061583577712609971
sI2
F0.049853372434017593
sI3
F0.02932551319648094
sI4
F0.02932551319648094
sI5
F0.028347996089931573
sI6
F0.025415444770283482
sI7
F0.023460410557184751
sI8
F0.022482893450635387
sI9
F0.011730205278592375
sI10
F0.011730205278592375
sI11
F0.0068426197458455523
sI12
F0.019550342130987292
sI13
F0.0087976539589442824
sI14
F0.011730205278592375
sI15
F0.015640273704789834
sI16
F0.0097751710654936461
sI17
F0.0058651026392961877
sI18
F0.0078201368523949169
sI19
F0.0048875855327468231
sI20
F0.0039100684261974585
sI21
F0.0048875855327468231
sI22
F0.010752688172043012
sI23
F0.0039100684261974585
sI24
F0.0058651026392961877
sI516
F0.00097751710654936461
sI26
F0.0058651026392961877
sI27
F0.0039100684261974585
sI28
F0.0058651026392961877
sI29
F0.0058651026392961877
sI30
F0.0019550342130987292
sI31
F0.0029325513196480938
sI32
F0.0068426197458455523
sI33
F0.0048875855327468231
sI546
F0.00097751710654936461
sI35
F0.0097751710654936461
sI36
F0.0029325513196480938
sI37
F0.0039100684261974585
sI38
F0.0019550342130987292
sI39
F0.0029325513196480938
sI40
F0.0019550342130987292
sI41
F0.0019550342130987292
sI42
F0.0039100684261974585
sI43
F0.0068426197458455523
sI44
F0.00097751710654936461
sI45
F0.0058651026392961877
sI46
F0.0029325513196480938
sI47
F0.0029325513196480938
sI48
F0.0048875855327468231
sI49
F0.0039100684261974585
sI1586
F0.00097751710654936461
sI51
F0.0019550342130987292
sI52
F0.0039100684261974585
sI53
F0.0029325513196480938
sI54
F0.0029325513196480938
sI55
F0.0058651026392961877
sI2104
F0.00097751710654936461
sI57
F0.0019550342130987292
sI58
F0.0039100684261974585
sI59
F0.00097751710654936461
sI572
F0.00097751710654936461
sI61
F0.0029325513196480938
sI62
F0.0039100684261974585
sI63
F0.00097751710654936461
sI64
F0.00097751710654936461
sI65
F0.00097751710654936461
sI66
F0.0039100684261974585
sI67
F0.0029325513196480938
sI68
F0.0019550342130987292
sI69
F0.00097751710654936461
sI70
F0.0058651026392961877
sI71
F0.0019550342130987292
sI72
F0.00097751710654936461
sI73
F0.0019550342130987292
sI74
F0.0029325513196480938
sI435
F0.00097751710654936461
sI1612
F0.00097751710654936461
sI98
F0.00097751710654936461
sI78
F0.0029325513196480938
sI79
F0.00097751710654936461
sI81
F0.0039100684261974585
sI82
F0.0029325513196480938
sI84
F0.0019550342130987292
sI526
F0.00097751710654936461
sI87
F0.00097751710654936461
sI88
F0.00097751710654936461
sI91
F0.0019550342130987292
sI93
F0.0019550342130987292
sI95
F0.0019550342130987292
sI96
F0.0039100684261974585
sI97
F0.0019550342130987292
sI2146
F0.00097751710654936461
sI443
F0.00097751710654936461
sI100
F0.0039100684261974585
sI358
F0.00097751710654936461
sI102
F0.0029325513196480938
sI103
F0.00097751710654936461
sI600
F0.00097751710654936461
sI11881
F0.00097751710654936461
sI109
F0.00097751710654936461
sI110
F0.0019550342130987292
sI111
F0.0019550342130987292
sI113
F0.0029325513196480938
sI114
F0.0029325513196480938
sI1652
F0.00097751710654936461
sI118
F0.00097751710654936461
sI3191
F0.00097751710654936461
sI121
F0.0039100684261974585
sI122
F0.00097751710654936461
sI123
F0.0019550342130987292
sI125
F0.0019550342130987292
sI126
F0.00097751710654936461
sI130
F0.0019550342130987292
sI131
F0.0019550342130987292
sI6788
F0.00097751710654936461
sI133
F0.00097751710654936461
sI134
F0.00097751710654936461
sI135
F0.0019550342130987292
sI136
F0.0019550342130987292
sI137
F0.00097751710654936461
sI138
F0.00097751710654936461
sI1675
F0.00097751710654936461
sI140
F0.00097751710654936461
sI141
F0.00097751710654936461
sI143
F0.00097751710654936461
sI145
F0.00097751710654936461
sI5266
F0.00097751710654936461
sI195
F0.00097751710654936461
sI622
F0.00097751710654936461
sI6169
F0.00097751710654936461
sI152
F0.00097751710654936461
sI153
F0.0029325513196480938
sI154
F0.0019550342130987292
sI155
F0.00097751710654936461
sI156
F0.00097751710654936461
sI9885
F0.00097751710654936461
sI158
F0.00097751710654936461
sI159
F0.00097751710654936461
sI4256
F0.00097751710654936461
sI161
F0.00097751710654936461
sI164
F0.00097751710654936461
sI165
F0.00097751710654936461
sI166
F0.00097751710654936461
sI540
F0.00097751710654936461
sI170
F0.00097751710654936461
sI171
F0.0019550342130987292
sI175
F0.00097751710654936461
sI2737
F0.00097751710654936461
sI180
F0.00097751710654936461
sI184
F0.00097751710654936461
sI185
F0.00097751710654936461
sI187
F0.0019550342130987292
sI189
F0.00097751710654936461
sI190
F0.00097751710654936461
sI705
F0.00097751710654936461
sI194
F0.00097751710654936461
sI707
F0.00097751710654936461
sI196
F0.0029325513196480938
sI5803
F0.00097751710654936461
sI1734
F0.00097751710654936461
sI6945
F0.00097751710654936461
sI200
F0.00097751710654936461
sI10954
F0.00097751710654936461
sI203
F0.00097751710654936461
sI34
F0.0029325513196480938
sI205
F0.0019550342130987292
sI721
F0.00097751710654936461
sI1747
F0.00097751710654936461
sI724
F0.00097751710654936461
sI14549
F0.00097751710654936461
sI214
F0.00097751710654936461
sI1145
F0.00097751710654936461
sI216
F0.00097751710654936461
sI217
F0.00097751710654936461
sI2778
F0.00097751710654936461
sI207
F0.00097751710654936461
sI7390
F0.00097751710654936461
sI735
F0.00097751710654936461
sI1248
F0.00097751710654936461
sI227
F0.00097751710654936461
sI1252
F0.00097751710654936461
sI379
F0.00097751710654936461
sI233
F0.00097751710654936461
sI235
F0.00097751710654936461
sI240
F0.00097751710654936461
sI3314
F0.00097751710654936461
sI211
F0.0029325513196480938
sI25
F0.0058651026392961877
sI23287
F0.00097751710654936461
sI248
F0.00097751710654936461
sI212
F0.00097751710654936461
sI1079
F0.00097751710654936461
sI255
F0.00097751710654936461
sI768
F0.00097751710654936461
sI770
F0.00097751710654936461
sI1579
F0.00097751710654936461
sI260
F0.0029325513196480938
sI2312
F0.00097751710654936461
sI7724
F0.00097751710654936461
sI780
F0.0019550342130987292
sI269
F0.00097751710654936461
sI4612
F0.00097751710654936461
sI1295
F0.00097751710654936461
sI277
F0.00097751710654936461
sI132
F0.00097751710654936461
sI12570
F0.00097751710654936461
sI10011
F0.00097751710654936461
sI284
F0.00097751710654936461
sI218
F0.00097751710654936461
sI287
F0.00097751710654936461
sI801
F0.00097751710654936461
sI290
F0.00097751710654936461
sI1315
F0.00097751710654936461
sI521
F0.00097751710654936461
sI805
F0.00097751710654936461
sI294
F0.00097751710654936461
sI295
F0.00097751710654936461
sI299
F0.00097751710654936461
sI760
F0.00097751710654936461
sI302
F0.0019550342130987292
sI3375
F0.00097751710654936461
sI2107
F0.00097751710654936461
sI307
F0.0019550342130987292
sI1343
F0.00097751710654936461
sI222
F0.00097751710654936461
sI1847
F0.00097751710654936461
sI2367
F0.00097751710654936461
sI2368
F0.00097751710654936461
sI5344
F0.00097751710654936461
sI834
F0.00097751710654936461
sI839
F0.00097751710654936461
sI3400
F0.00097751710654936461
sI1176
F0.00097751710654936461
sI567
F0.00097751710654936461
sI1871
F0.00097751710654936461
sI56
F0.0019550342130987292
sI344
F0.00097751710654936461
sI345
F0.0019550342130987292
sI346
F0.00097751710654936461
sI8898
F0.00097751710654936461
sI1222
F0.00097751710654936461
sI353
F0.00097751710654936461
sI571
F0.00097751710654936461
sI870
F0.00097751710654936461
sI60
F0.0019550342130987292
sI362
F0.00097751710654936461
sI1900
F0.00097751710654936461
sI146
F0.00097751710654936461
sI878
F0.00097751710654936461
sI147
F0.00097751710654936461
sI285
F0.0019550342130987292
sI373
F0.00097751710654936461
sI374
F0.0019550342130987292
sI1399
F0.00097751710654936461
sI5683
F0.00097751710654936461
sI8061
F0.00097751710654936461
sI524
F0.00097751710654936461
sI2795
F0.00097751710654936461
sI393
F0.00097751710654936461
sI1419
F0.00097751710654936461
sI397
F0.00097751710654936461
sI399
F0.0019550342130987292
sI1688
F0.00097751710654936461
sI406
F0.00097751710654936461
sI409
F0.00097751710654936461
sI925
F0.00097751710654936461
sI927
F0.00097751710654936461
sI416
F0.00097751710654936461
sI2466
F0.00097751710654936461
sI420
F0.0019550342130987292
sI555
F0.00097751710654936461
sI423
F0.00097751710654936461
sI372
F0.00097751710654936461
sI3498
F0.00097751710654936461
sI1452
F0.00097751710654936461
sI242
F0.00097751710654936461
sI270
F0.00097751710654936461
sI243
F0.00097751710654936461
sI436
F0.00097751710654936461
sI438
F0.00097751710654936461
sI2804
F0.00097751710654936461
sI1902
F0.00097751710654936461
sI446
F0.00097751710654936461
sI447
F0.00097751710654936461
sI2497
F0.00097751710654936461
sI452
F0.00097751710654936461
sI76
F0.00097751710654936461
sI458
F0.00097751710654936461
sI463
F0.00097751710654936461
sI465
F0.00097751710654936461
sI2004
F0.00097751710654936461
sI561
F0.00097751710654936461
sI1495
F0.00097751710654936461
sI472
F0.00097751710654936461
sI501
F0.00097751710654936461
sI4061
F0.00097751710654936461
sI480
F0.00097751710654936461
sI995
F0.00097751710654936461
sI5604
F0.00097751710654936461
sI491
F0.00097751710654936461
sI3054
F0.00097751710654936461
sI1522
F0.00097751710654936461
sI1585
F0.00097751710654936461
sI2550
F0.00097751710654936461
sI160
F0.00097751710654936461
sI992
F0.00097751710654936461
sI85
F0.00097751710654936461
sag2
(g3
tRp6
I0
F0.19775924960917143
sI1
F0.09405940594059406
sI2
F0.06122980719124544
sI3
F0.046117769671704015
sI4
F0.039082855653986448
sI5
F0.025013027618551328
sI6
F0.022668056279312142
sI7
F0.019280875455966649
sI8
F0.013027618551328817
sI9
F0.014590932777488274
sI10
F0.016154247003647731
sI11
F0.011203751954142784
sI12
F0.015112037519541427
sI13
F0.0099009900990099011
sI14
F0.012245961438249088
sI15
F0.010943199583116207
sI16
F0.007816571130797291
sI17
F0.0065138092756644086
sI18
F0.0065138092756644086
sI19
F0.0067743616466909851
sI20
F0.0062532569046378321
sI21
F0.0070349140177175615
sI22
F0.0067743616466909851
sI23
F0.0059927045336112556
sI24
F0.0091193329859301717
sI25
F0.0067743616466909851
sI26
F0.0054715997915581035
sI27
F0.0039082855653986455
sI28
F0.0046899426784783741
sI29
F0.0054715997915581035
sI30
F0.0044293903074517976
sI31
F0.003126628452318916
sI32
F0.0039082855653986455
sI33
F0.0046899426784783741
sI34
F0.002344971339239187
sI35
F0.0044293903074517976
sI36
F0.003126628452318916
sI37
F0.003126628452318916
sI38
F0.001563314226159458
sI39
F0.0036477331943720686
sI40
F0.003126628452318916
sI41
F0.001563314226159458
sI42
F0.0020844189682126106
sI43
F0.002344971339239187
sI44
F0.0026055237102657635
sI45
F0.0026055237102657635
sI46
F0.0028660760812923396
sI47
F0.002344971339239187
sI48
F0.0044293903074517976
sI49
F0.0026055237102657635
sI50
F0.002344971339239187
sI51
F0.0018238665971860343
sI52
F0.0026055237102657635
sI53
F0.0033871808233454925
sI54
F0.001563314226159458
sI55
F0.0018238665971860343
sI56
F0.0018238665971860343
sI57
F0.0018238665971860343
sI58
F0.0010422094841063053
sI59
F0.0018238665971860343
sI60
F0.003126628452318916
sI61
F0.002344971339239187
sI62
F0.0020844189682126106
sI63
F0.002344971339239187
sI64
F0.001563314226159458
sI65
F0.001563314226159458
sI4162
F0.00026055237102657632
sI67
F0.0020844189682126106
sI68
F0.0013027618551328818
sI69
F0.0018238665971860343
sI70
F0.0018238665971860343
sI71
F0.001563314226159458
sI72
F0.0010422094841063053
sI73
F0.001563314226159458
sI74
F0.001563314226159458
sI10315
F0.00026055237102657632
sI76
F0.0013027618551328818
sI77
F0.0013027618551328818
sI78
F0.0018238665971860343
sI79
F0.001563314226159458
sI80
F0.00052110474205315264
sI81
F0.00026055237102657632
sI82
F0.00078165711307972901
sI83
F0.0013027618551328818
sI84
F0.00026055237102657632
sI85
F0.0013027618551328818
sI86
F0.0013027618551328818
sI87
F0.001563314226159458
sI88
F0.0013027618551328818
sI89
F0.0010422094841063053
sI91
F0.0010422094841063053
sI92
F0.0010422094841063053
sI10333
F0.00026055237102657632
sI94
F0.00026055237102657632
sI95
F0.00052110474205315264
sI96
F0.00078165711307972901
sI97
F0.0010422094841063053
sI98
F0.00078165711307972901
sI99
F0.00026055237102657632
sI100
F0.0010422094841063053
sI101
F0.0013027618551328818
sI102
F0.0013027618551328818
sI103
F0.00026055237102657632
sI104
F0.00078165711307972901
sI106
F0.00026055237102657632
sI107
F0.0010422094841063053
sI108
F0.00026055237102657632
sI109
F0.0010422094841063053
sI110
F0.00052110474205315264
sI111
F0.00078165711307972901
sI112
F0.00052110474205315264
sI113
F0.00026055237102657632
sI114
F0.00078165711307972901
sI115
F0.00052110474205315264
sI116
F0.0013027618551328818
sI117
F0.00026055237102657632
sI118
F0.00026055237102657632
sI119
F0.00078165711307972901
sI120
F0.0010422094841063053
sI121
F0.0010422094841063053
sI122
F0.00052110474205315264
sI123
F0.0010422094841063053
sI124
F0.00052110474205315264
sI125
F0.00078165711307972901
sI345
F0.00052110474205315264
sI127
F0.00026055237102657632
sI128
F0.00078165711307972901
sI129
F0.00078165711307972901
sI130
F0.00052110474205315264
sI131
F0.00078165711307972901
sI132
F0.00052110474205315264
sI133
F0.0010422094841063053
sI134
F0.00078165711307972901
sI135
F0.0010422094841063053
sI136
F0.00026055237102657632
sI137
F0.00026055237102657632
sI138
F0.00052110474205315264
sI139
F0.0013027618551328818
sI140
F0.0018238665971860343
sI141
F0.0013027618551328818
sI142
F0.00078165711307972901
sI143
F0.00052110474205315264
sI144
F0.00078165711307972901
sI146
F0.00026055237102657632
sI147
F0.00052110474205315264
sI148
F0.00052110474205315264
sI149
F0.00078165711307972901
sI150
F0.001563314226159458
sI151
F0.00026055237102657632
sI152
F0.0010422094841063053
sI153
F0.00026055237102657632
sI155
F0.00026055237102657632
sI156
F0.00078165711307972901
sI157
F0.00026055237102657632
sI158
F0.00026055237102657632
sI160
F0.0010422094841063053
sI161
F0.00052110474205315264
sI162
F0.00052110474205315264
sI163
F0.00052110474205315264
sI164
F0.00052110474205315264
sI165
F0.00052110474205315264
sI166
F0.00026055237102657632
sI167
F0.00026055237102657632
sI168
F0.00026055237102657632
sI8362
F0.00026055237102657632
sI171
F0.00026055237102657632
sI172
F0.00026055237102657632
sI173
F0.00026055237102657632
sI174
F0.00026055237102657632
sI175
F0.00026055237102657632
sI177
F0.00052110474205315264
sI178
F0.00026055237102657632
sI180
F0.00026055237102657632
sI181
F0.00052110474205315264
sI182
F0.00026055237102657632
sI183
F0.00026055237102657632
sI184
F0.00026055237102657632
sI185
F0.0010422094841063053
sI187
F0.00026055237102657632
sI188
F0.00052110474205315264
sI191
F0.00052110474205315264
sI192
F0.00052110474205315264
sI195
F0.00052110474205315264
sI196
F0.00052110474205315264
sI197
F0.00026055237102657632
sI199
F0.0010422094841063053
sI200
F0.00026055237102657632
sI201
F0.0013027618551328818
sI202
F0.00078165711307972901
sI204
F0.00026055237102657632
sI205
F0.00052110474205315264
sI208
F0.00026055237102657632
sI209
F0.00026055237102657632
sI210
F0.00026055237102657632
sI211
F0.00026055237102657632
sI212
F0.00026055237102657632
sI213
F0.00026055237102657632
sI214
F0.0013027618551328818
sI215
F0.00052110474205315264
sI216
F0.0010422094841063053
sI217
F0.00078165711307972901
sI218
F0.00078165711307972901
sI219
F0.00026055237102657632
sI220
F0.00052110474205315264
sI221
F0.00026055237102657632
sI222
F0.00078165711307972901
sI223
F0.00078165711307972901
sI224
F0.00026055237102657632
sI225
F0.00026055237102657632
sI226
F0.00026055237102657632
sI227
F0.00026055237102657632
sI228
F0.00052110474205315264
sI229
F0.00078165711307972901
sI230
F0.00026055237102657632
sI234
F0.00026055237102657632
sI236
F0.00026055237102657632
sI238
F0.00026055237102657632
sI239
F0.00052110474205315264
sI4336
F0.00026055237102657632
sI241
F0.00026055237102657632
sI4340
F0.00026055237102657632
sI246
F0.00026055237102657632
sI248
F0.00026055237102657632
sI249
F0.00026055237102657632
sI250
F0.00026055237102657632
sI252
F0.00026055237102657632
sI253
F0.00026055237102657632
sI254
F0.00026055237102657632
sI258
F0.00026055237102657632
sI259
F0.00026055237102657632
sI261
F0.00052110474205315264
sI263
F0.00052110474205315264
sI266
F0.00052110474205315264
sI267
F0.00026055237102657632
sI268
F0.00052110474205315264
sI270
F0.00052110474205315264
sI273
F0.00026055237102657632
sI274
F0.00078165711307972901
sI275
F0.0013027618551328818
sI276
F0.00078165711307972901
sI279
F0.00026055237102657632
sI280
F0.00026055237102657632
sI281
F0.00052110474205315264
sI282
F0.00052110474205315264
sI283
F0.00052110474205315264
sI288
F0.00052110474205315264
sI291
F0.00026055237102657632
sI295
F0.00026055237102657632
sI298
F0.00026055237102657632
sI299
F0.00026055237102657632
sI302
F0.00026055237102657632
sI304
F0.00052110474205315264
sI305
F0.00026055237102657632
sI12339
F0.00026055237102657632
sI308
F0.00026055237102657632
sI309
F0.00026055237102657632
sI310
F0.00026055237102657632
sI313
F0.00026055237102657632
sI314
F0.00052110474205315264
sI315
F0.00026055237102657632
sI4414
F0.00026055237102657632
sI319
F0.00026055237102657632
sI321
F0.00052110474205315264
sI323
F0.00026055237102657632
sI325
F0.00052110474205315264
sI326
F0.00026055237102657632
sI327
F0.00026055237102657632
sI4424
F0.00026055237102657632
sI329
F0.00026055237102657632
sI8523
F0.00026055237102657632
sI332
F0.00026055237102657632
sI334
F0.00026055237102657632
sI339
F0.00052110474205315264
sI341
F0.00026055237102657632
sI343
F0.00026055237102657632
sI344
F0.00026055237102657632
sI4441
F0.00026055237102657632
sI347
F0.00052110474205315264
sI10298
F0.00026055237102657632
sI350
F0.00026055237102657632
sI352
F0.00052110474205315264
sI354
F0.00026055237102657632
sI362
F0.00026055237102657632
sI363
F0.00052110474205315264
sI366
F0.00026055237102657632
sI368
F0.00052110474205315264
sI371
F0.00026055237102657632
sI374
F0.00052110474205315264
sI2424
F0.00026055237102657632
sI379
F0.00026055237102657632
sI380
F0.00026055237102657632
sI4477
F0.00026055237102657632
sI385
F0.00026055237102657632
sI388
F0.00026055237102657632
sI391
F0.00026055237102657632
sI392
F0.00026055237102657632
sI397
F0.00026055237102657632
sI399
F0.00052110474205315264
sI401
F0.00026055237102657632
sI402
F0.00026055237102657632
sI407
F0.00026055237102657632
sI408
F0.00026055237102657632
sI409
F0.00026055237102657632
sI411
F0.00026055237102657632
sI412
F0.00078165711307972901
sI2462
F0.00026055237102657632
sI415
F0.00026055237102657632
sI416
F0.00052110474205315264
sI417
F0.00026055237102657632
sI24994
F0.00026055237102657632
sI419
F0.00026055237102657632
sI420
F0.00026055237102657632
sI422
F0.00052110474205315264
sI423
F0.00052110474205315264
sI426
F0.00052110474205315264
sI427
F0.00078165711307972901
sI428
F0.00052110474205315264
sI431
F0.00026055237102657632
sI434
F0.00052110474205315264
sI437
F0.00026055237102657632
sI439
F0.00026055237102657632
sI440
F0.00026055237102657632
sI442
F0.00026055237102657632
sI443
F0.00026055237102657632
sI444
F0.00026055237102657632
sI445
F0.00026055237102657632
sI446
F0.00026055237102657632
sI448
F0.00026055237102657632
sI75
F0.00078165711307972901
sI453
F0.00026055237102657632
sI455
F0.00026055237102657632
sI457
F0.00026055237102657632
sI459
F0.00026055237102657632
sI460
F0.00026055237102657632
sI418
F0.00026055237102657632
sI462
F0.00026055237102657632
sI464
F0.00052110474205315264
sI467
F0.00026055237102657632
sI475
F0.00026055237102657632
sI479
F0.00026055237102657632
sI483
F0.00052110474205315264
sI486
F0.00026055237102657632
sI487
F0.00026055237102657632
sI490
F0.00026055237102657632
sI6563
F0.00026055237102657632
sI496
F0.00026055237102657632
sI500
F0.00026055237102657632
sI508
F0.00052110474205315264
sI509
F0.00026055237102657632
sI512
F0.00026055237102657632
sI517
F0.00052110474205315264
sI526
F0.00052110474205315264
sI530
F0.00026055237102657632
sI535
F0.00026055237102657632
sI4641
F0.00026055237102657632
sI548
F0.00026055237102657632
sI550
F0.00026055237102657632
sI4188
F0.00026055237102657632
sI2605
F0.00026055237102657632
sI559
F0.00026055237102657632
sI560
F0.00052110474205315264
sI561
F0.00026055237102657632
sI562
F0.00026055237102657632
sI564
F0.00052110474205315264
sI570
F0.00052110474205315264
sI575
F0.00026055237102657632
sI578
F0.00026055237102657632
sI2630
F0.00026055237102657632
sI584
F0.00026055237102657632
sI588
F0.00026055237102657632
sI589
F0.00026055237102657632
sI590
F0.00026055237102657632
sI2640
F0.00026055237102657632
sI593
F0.00026055237102657632
sI595
F0.00026055237102657632
sI596
F0.00026055237102657632
sI599
F0.00026055237102657632
sI604
F0.00026055237102657632
sI611
F0.00026055237102657632
sI616
F0.00026055237102657632
sI617
F0.00026055237102657632
sI618
F0.00052110474205315264
sI622
F0.00026055237102657632
sI625
F0.00026055237102657632
sI626
F0.00026055237102657632
sI627
F0.00026055237102657632
sI639
F0.00026055237102657632
sI646
F0.00026055237102657632
sI653
F0.00026055237102657632
sI654
F0.00026055237102657632
sI451
F0.00026055237102657632
sI660
F0.00026055237102657632
sI662
F0.00026055237102657632
sI6811
F0.00026055237102657632
sI671
F0.00026055237102657632
sI672
F0.00026055237102657632
sI678
F0.00026055237102657632
sI684
F0.00026055237102657632
sI2737
F0.00026055237102657632
sI697
F0.00026055237102657632
sI699
F0.00026055237102657632
sI707
F0.00026055237102657632
sI709
F0.00026055237102657632
sI8903
F0.00026055237102657632
sI731
F0.00026055237102657632
sI734
F0.00052110474205315264
sI739
F0.00026055237102657632
sI748
F0.00026055237102657632
sI93
F0.00026055237102657632
sI752
F0.00026055237102657632
sI2802
F0.00026055237102657632
sI126
F0.00052110474205315264
sI2824
F0.00026055237102657632
sI1155
F0.00026055237102657632
sI794
F0.00026055237102657632
sI802
F0.00026055237102657632
sI2852
F0.00026055237102657632
sI810
F0.00026055237102657632
sI4914
F0.00026055237102657632
sI825
F0.00026055237102657632
sI827
F0.00026055237102657632
sI832
F0.00026055237102657632
sI6985
F0.00026055237102657632
sI846
F0.00026055237102657632
sI848
F0.00026055237102657632
sI849
F0.00026055237102657632
sI852
F0.00026055237102657632
sI4950
F0.00026055237102657632
sI2906
F0.00026055237102657632
sI871
F0.00052110474205315264
sI711
F0.00026055237102657632
sI882
F0.00026055237102657632
sI2195
F0.00026055237102657632
sI895
F0.00026055237102657632
sI897
F0.00026055237102657632
sI4995
F0.00026055237102657632
sI909
F0.00026055237102657632
sI493
F0.00026055237102657632
sI915
F0.00026055237102657632
sI922
F0.00026055237102657632
sI925
F0.00026055237102657632
sI5029
F0.00026055237102657632
sI953
F0.00026055237102657632
sI959
F0.00026055237102657632
sI961
F0.00026055237102657632
sI7116
F0.00026055237102657632
sI978
F0.00026055237102657632
sI5075
F0.00026055237102657632
sI984
F0.00026055237102657632
sI19424
F0.00026055237102657632
sI1002
F0.00026055237102657632
sI3059
F0.00026055237102657632
sI1012
F0.00026055237102657632
sI170
F0.00052110474205315264
sI1028
F0.00026055237102657632
sI1036
F0.00026055237102657632
sI42000
F0.00026055237102657632
sI1057
F0.00026055237102657632
sI2225
F0.00026055237102657632
sI1084
F0.00026055237102657632
sI1099
F0.00026055237102657632
sI1110
F0.00026055237102657632
sI2233
F0.00026055237102657632
sI3162
F0.00026055237102657632
sI1127
F0.00026055237102657632
sI1131
F0.00026055237102657632
sI1132
F0.00026055237102657632
sI2152
F0.00026055237102657632
sI9347
F0.00026055237102657632
sI1157
F0.00026055237102657632
sI1159
F0.00026055237102657632
sI5257
F0.00026055237102657632
sI878
F0.00026055237102657632
sI1179
F0.00026055237102657632
sI1181
F0.00026055237102657632
sI3235
F0.00026055237102657632
sI1199
F0.00026055237102657632
sI1209
F0.00026055237102657632
sI1226
F0.00026055237102657632
sI1227
F0.00026055237102657632
sI1228
F0.00026055237102657632
sI1235
F0.00026055237102657632
sI3312
F0.00026055237102657632
sI3314
F0.00026055237102657632
sI1267
F0.00026055237102657632
sI1268
F0.00026055237102657632
sI7416
F0.00026055237102657632
sI1275
F0.00026055237102657632
sI1288
F0.00026055237102657632
sI1306
F0.00026055237102657632
sI1313
F0.00026055237102657632
sI2268
F0.00026055237102657632
sI1325
F0.00026055237102657632
sI23890
F0.00026055237102657632
sI318
F0.00026055237102657632
sI1376
F0.00026055237102657632
sI1383
F0.00026055237102657632
sI1403
F0.00026055237102657632
sI1421
F0.00026055237102657632
sI3479
F0.00026055237102657632
sI1433
F0.00026055237102657632
sI3485
F0.00026055237102657632
sI9631
F0.00026055237102657632
sI1443
F0.00026055237102657632
sI582
F0.00026055237102657632
sI1449
F0.00026055237102657632
sI1459
F0.00026055237102657632
sI244
F0.00026055237102657632
sI5587
F0.00026055237102657632
sI17881
F0.00026055237102657632
sI1507
F0.00026055237102657632
sI1514
F0.00026055237102657632
sI1518
F0.00026055237102657632
sI5618
F0.00026055237102657632
sI5620
F0.00026055237102657632
sI7700
F0.00026055237102657632
sI1559
F0.00026055237102657632
sI1560
F0.00026055237102657632
sI1578
F0.00026055237102657632
sI1596
F0.00026055237102657632
sI12465
F0.00026055237102657632
sI7796
F0.00026055237102657632
sI1671
F0.00026055237102657632
sI1672
F0.00026055237102657632
sI22159
F0.00026055237102657632
sI3752
F0.00026055237102657632
sI3765
F0.00026055237102657632
sI1719
F0.00026055237102657632
sI1720
F0.00026055237102657632
sI14022
F0.00026055237102657632
sI972
F0.00052110474205315264
sI1745
F0.00026055237102657632
sI7923
F0.00026055237102657632
sI1782
F0.00026055237102657632
sI14077
F0.00026055237102657632
sI1795
F0.00026055237102657632
sI1799
F0.00026055237102657632
sI1826
F0.00026055237102657632
sI12069
F0.00026055237102657632
sI38536
F0.00026055237102657632
sI307
F0.00026055237102657632
sI1868
F0.00026055237102657632
sI14197
F0.00026055237102657632
sI1916
F0.00026055237102657632
sI1919
F0.00026055237102657632
sI1923
F0.00026055237102657632
sI1925
F0.00026055237102657632
sI1932
F0.00026055237102657632
sI1937
F0.00026055237102657632
sI328
F0.00026055237102657632
sI1980
F0.00026055237102657632
sI66
F0.0018238665971860343
sI1999
F0.00026055237102657632
sI2006
F0.00026055237102657632
sI8185
F0.00026055237102657632
sI4065
F0.00026055237102657632
sI2019
F0.00026055237102657632
sI2027
F0.00026055237102657632
sI4089
F0.00026055237102657632
sI2045
F0.00026055237102657632
sag2
(g3
tRp7
I0
F0.25520219866509619
sI1
F0.099332548095798973
sI2
F0.058500196309383586
sI3
F0.037691401648998819
sI4
F0.032979976442873968
sI5
F0.022771888496270123
sI6
F0.016489988221436984
sI7
F0.012171181782489203
sI8
F0.012956419316843345
sI9
F0.017275225755791126
sI10
F0.0058892815076560662
sI11
F0.012171181782489203
sI12
F0.0098154691794267758
sI13
F0.010208087946603848
sI14
F0.0070671378091872791
sI15
F0.0051040439733019242
sI16
F0.0090302316450726339
sI17
F0.0047114252061248524
sI18
F0.0070671378091872791
sI19
F0.0054966627404789952
sI20
F0.0054966627404789952
sI21
F0.0035335689045936395
sI22
F0.0066745190420102081
sI23
F0.0062819002748331371
sI24
F0.0066745190420102081
sI25
F0.0035335689045936395
sI26
F0.0043188064389477815
sI27
F0.0039261876717707105
sI28
F0.0035335689045936395
sI29
F0.0054966627404789952
sI30
F0.0043188064389477815
sI31
F0.0031409501374165686
sI32
F0.0015704750687082843
sI33
F0.0039261876717707105
sI34
F0.0035335689045936395
sI35
F0.0027483313702394976
sI36
F0.0011778563015312131
sI37
F0.0043188064389477815
sI38
F0.0047114252061248524
sI39
F0.0023557126030624262
sI40
F0.0019630938358853552
sI41
F0.0035335689045936395
sI42
F0.0015704750687082843
sI43
F0.0011778563015312131
sI44
F0.0019630938358853552
sI45
F0.0011778563015312131
sI46
F0.0019630938358853552
sI47
F0.0035335689045936395
sI48
F0.0027483313702394976
sI49
F0.0015704750687082843
sI50
F0.0023557126030624262
sI51
F0.0023557126030624262
sI52
F0.0023557126030624262
sI53
F0.0019630938358853552
sI54
F0.0011778563015312131
sI55
F0.0011778563015312131
sI56
F0.00078523753435414214
sI57
F0.0015704750687082843
sI58
F0.00078523753435414214
sI59
F0.0011778563015312131
sI2108
F0.00039261876717707107
sI61
F0.00039261876717707107
sI62
F0.0019630938358853552
sI63
F0.0011778563015312131
sI64
F0.0023557126030624262
sI65
F0.0011778563015312131
sI66
F0.0023557126030624262
sI67
F0.0019630938358853552
sI68
F0.0015704750687082843
sI69
F0.0015704750687082843
sI70
F0.0023557126030624262
sI71
F0.0011778563015312131
sI72
F0.0011778563015312131
sI73
F0.0019630938358853552
sI75
F0.00078523753435414214
sI76
F0.0027483313702394976
sI77
F0.00039261876717707107
sI78
F0.00078523753435414214
sI79
F0.0011778563015312131
sI80
F0.0011778563015312131
sI2129
F0.00039261876717707107
sI82
F0.00039261876717707107
sI83
F0.0015704750687082843
sI84
F0.0015704750687082843
sI85
F0.00039261876717707107
sI86
F0.0011778563015312131
sI87
F0.00078523753435414214
sI88
F0.00039261876717707107
sI89
F0.00039261876717707107
sI90
F0.00039261876717707107
sI91
F0.00078523753435414214
sI93
F0.0011778563015312131
sI96
F0.00078523753435414214
sI97
F0.00078523753435414214
sI100
F0.00078523753435414214
sI101
F0.0011778563015312131
sI102
F0.00039261876717707107
sI103
F0.0011778563015312131
sI104
F0.0015704750687082843
sI105
F0.00039261876717707107
sI106
F0.00039261876717707107
sI107
F0.00078523753435414214
sI108
F0.0015704750687082843
sI109
F0.00078523753435414214
sI110
F0.0011778563015312131
sI111
F0.0011778563015312131
sI113
F0.0011778563015312131
sI117
F0.0011778563015312131
sI118
F0.00039261876717707107
sI119
F0.00039261876717707107
sI120
F0.00039261876717707107
sI121
F0.00039261876717707107
sI122
F0.00078523753435414214
sI124
F0.00078523753435414214
sI126
F0.00039261876717707107
sI128
F0.00078523753435414214
sI129
F0.0015704750687082843
sI130
F0.00039261876717707107
sI131
F0.0011778563015312131
sI132
F0.00039261876717707107
sI133
F0.00078523753435414214
sI134
F0.0019630938358853552
sI135
F0.00078523753435414214
sI136
F0.0019630938358853552
sI137
F0.0015704750687082843
sI138
F0.00039261876717707107
sI139
F0.0011778563015312131
sI140
F0.00078523753435414214
sI141
F0.00078523753435414214
sI143
F0.00078523753435414214
sI144
F0.0011778563015312131
sI145
F0.00039261876717707107
sI146
F0.00039261876717707107
sI147
F0.00039261876717707107
sI2196
F0.00039261876717707107
sI149
F0.00039261876717707107
sI150
F0.00039261876717707107
sI151
F0.00039261876717707107
sI152
F0.00039261876717707107
sI153
F0.00078523753435414214
sI154
F0.00039261876717707107
sI367
F0.00039261876717707107
sI160
F0.00078523753435414214
sI161
F0.00039261876717707107
sI162
F0.00039261876717707107
sI163
F0.0011778563015312131
sI164
F0.00039261876717707107
sI8357
F0.00039261876717707107
sI166
F0.00078523753435414214
sI169
F0.00039261876717707107
sI171
F0.00039261876717707107
sI2220
F0.00039261876717707107
sI174
F0.00039261876717707107
sI177
F0.00039261876717707107
sI178
F0.00039261876717707107
sI180
F0.00078523753435414214
sI181
F0.00039261876717707107
sI183
F0.00078523753435414214
sI184
F0.00039261876717707107
sI185
F0.00039261876717707107
sI187
F0.0011778563015312131
sI188
F0.0015704750687082843
sI189
F0.00039261876717707107
sI190
F0.00039261876717707107
sI191
F0.00039261876717707107
sI193
F0.00039261876717707107
sI195
F0.0015704750687082843
sI196
F0.00039261876717707107
sI197
F0.00039261876717707107
sI198
F0.0011778563015312131
sI199
F0.00039261876717707107
sI201
F0.00039261876717707107
sI202
F0.00039261876717707107
sI204
F0.00039261876717707107
sI205
F0.00078523753435414214
sI206
F0.00039261876717707107
sI207
F0.00078523753435414214
sI208
F0.00039261876717707107
sI209
F0.00039261876717707107
sI211
F0.00039261876717707107
sI212
F0.00039261876717707107
sI214
F0.00039261876717707107
sI216
F0.00039261876717707107
sI218
F0.00039261876717707107
sI219
F0.0015704750687082843
sI222
F0.00039261876717707107
sI224
F0.00039261876717707107
sI225
F0.00039261876717707107
sI226
F0.00039261876717707107
sI227
F0.00039261876717707107
sI228
F0.00039261876717707107
sI230
F0.00039261876717707107
sI232
F0.00078523753435414214
sI234
F0.00039261876717707107
sI238
F0.00039261876717707107
sI239
F0.00078523753435414214
sI2289
F0.00039261876717707107
sI242
F0.00039261876717707107
sI244
F0.00078523753435414214
sI245
F0.00039261876717707107
sI247
F0.00039261876717707107
sI20728
F0.00039261876717707107
sI251
F0.00078523753435414214
sI254
F0.00078523753435414214
sI256
F0.00078523753435414214
sI260
F0.00039261876717707107
sI385
F0.00039261876717707107
sI264
F0.00078523753435414214
sI265
F0.00039261876717707107
sI4365
F0.00039261876717707107
sI270
F0.00039261876717707107
sI274
F0.00039261876717707107
sI275
F0.00078523753435414214
sI277
F0.00039261876717707107
sI4374
F0.00039261876717707107
sI2055
F0.00039261876717707107
sI281
F0.00039261876717707107
sI283
F0.00039261876717707107
sI284
F0.00039261876717707107
sI288
F0.00078523753435414214
sI294
F0.00039261876717707107
sI296
F0.00039261876717707107
sI298
F0.00039261876717707107
sI301
F0.00039261876717707107
sI4399
F0.00039261876717707107
sI305
F0.00039261876717707107
sI2355
F0.00039261876717707107
sI308
F0.00039261876717707107
sI10550
F0.00039261876717707107
sI311
F0.00039261876717707107
sI2100
F0.00039261876717707107
sI314
F0.00039261876717707107
sI316
F0.00039261876717707107
sI318
F0.00039261876717707107
sI319
F0.0011778563015312131
sI322
F0.00039261876717707107
sI324
F0.00039261876717707107
sI327
F0.00039261876717707107
sI330
F0.00039261876717707107
sI338
F0.00039261876717707107
sI344
F0.00078523753435414214
sI349
F0.00078523753435414214
sI351
F0.00039261876717707107
sI353
F0.00039261876717707107
sI2405
F0.00039261876717707107
sI361
F0.00078523753435414214
sI363
F0.00078523753435414214
sI4461
F0.00039261876717707107
sI366
F0.00078523753435414214
sI29039
F0.00039261876717707107
sI373
F0.00039261876717707107
sI374
F0.00078523753435414214
sI376
F0.00078523753435414214
sI377
F0.00039261876717707107
sI2111
F0.00039261876717707107
sI380
F0.00039261876717707107
sI381
F0.00039261876717707107
sI382
F0.00039261876717707107
sI383
F0.00078523753435414214
sI4160
F0.00039261876717707107
sI398
F0.00039261876717707107
sI403
F0.00039261876717707107
sI2453
F0.00039261876717707107
sI16790
F0.00039261876717707107
sI409
F0.00039261876717707107
sI417
F0.00039261876717707107
sI421
F0.00039261876717707107
sI422
F0.00039261876717707107
sI2471
F0.00039261876717707107
sI425
F0.00039261876717707107
sI426
F0.00078523753435414214
sI428
F0.00039261876717707107
sI4526
F0.00039261876717707107
sI10680
F0.00039261876717707107
sI443
F0.00039261876717707107
sI448
F0.00078523753435414214
sI455
F0.00078523753435414214
sI457
F0.00078523753435414214
sI459
F0.00039261876717707107
sI461
F0.00039261876717707107
sI2511
F0.00039261876717707107
sI464
F0.00039261876717707107
sI2516
F0.00039261876717707107
sI2517
F0.00039261876717707107
sI471
F0.00039261876717707107
sI474
F0.00078523753435414214
sI475
F0.00039261876717707107
sI486
F0.00039261876717707107
sI81
F0.00039261876717707107
sI488
F0.00039261876717707107
sI489
F0.00078523753435414214
sI8683
F0.00039261876717707107
sI498
F0.00039261876717707107
sI499
F0.00039261876717707107
sI10740
F0.00039261876717707107
sI501
F0.00039261876717707107
sI509
F0.00039261876717707107
sI4612
F0.00039261876717707107
sI517
F0.00039261876717707107
sI530
F0.00039261876717707107
sI541
F0.00039261876717707107
sI545
F0.00039261876717707107
sI2612
F0.00039261876717707107
sI572
F0.00078523753435414214
sI575
F0.00039261876717707107
sI576
F0.00039261876717707107
sI577
F0.00039261876717707107
sI578
F0.00039261876717707107
sI581
F0.00039261876717707107
sI582
F0.00039261876717707107
sI586
F0.00039261876717707107
sI589
F0.00039261876717707107
sI2638
F0.00039261876717707107
sI596
F0.00078523753435414214
sI598
F0.00039261876717707107
sI600
F0.00039261876717707107
sI2658
F0.00039261876717707107
sI2660
F0.00039261876717707107
sI613
F0.00039261876717707107
sI617
F0.00039261876717707107
sI620
F0.00039261876717707107
sI625
F0.00039261876717707107
sI629
F0.00039261876717707107
sI632
F0.00039261876717707107
sI636
F0.00039261876717707107
sI637
F0.00039261876717707107
sI639
F0.00039261876717707107
sI643
F0.00039261876717707107
sI646
F0.00039261876717707107
sI649
F0.00039261876717707107
sI17049
F0.00039261876717707107
sI666
F0.00039261876717707107
sI667
F0.00039261876717707107
sI670
F0.00039261876717707107
sI671
F0.00039261876717707107
sI673
F0.00078523753435414214
sI677
F0.00039261876717707107
sI678
F0.00039261876717707107
sI2727
F0.00039261876717707107
sI686
F0.00039261876717707107
sI691
F0.00039261876717707107
sI700
F0.00039261876717707107
sI707
F0.00039261876717707107
sI710
F0.00039261876717707107
sI711
F0.00039261876717707107
sI718
F0.00039261876717707107
sI722
F0.00039261876717707107
sI726
F0.00039261876717707107
sI736
F0.00039261876717707107
sI747
F0.00039261876717707107
sI10994
F0.00039261876717707107
sI21166
F0.00039261876717707107
sI770
F0.00039261876717707107
sI2819
F0.00039261876717707107
sI774
F0.00039261876717707107
sI778
F0.00078523753435414214
sI784
F0.00039261876717707107
sI788
F0.00039261876717707107
sI800
F0.00039261876717707107
sI2850
F0.00039261876717707107
sI803
F0.00039261876717707107
sI807
F0.00039261876717707107
sI811
F0.00039261876717707107
sI813
F0.00039261876717707107
sI824
F0.00039261876717707107
sI2874
F0.00039261876717707107
sI2886
F0.00039261876717707107
sI853
F0.00039261876717707107
sI860
F0.00039261876717707107
sI8553
F0.00039261876717707107
sI864
F0.00039261876717707107
sI2192
F0.00039261876717707107
sI867
F0.00039261876717707107
sI487
F0.00039261876717707107
sI148
F0.00039261876717707107
sI902
F0.00039261876717707107
sI11144
F0.00039261876717707107
sI7056
F0.00039261876717707107
sI921
F0.00039261876717707107
sI4250
F0.00039261876717707107
sI155
F0.00078523753435414214
sI934
F0.00039261876717707107
sI943
F0.00039261876717707107
sI11188
F0.00039261876717707107
sI500
F0.00039261876717707107
sI963
F0.00039261876717707107
sI970
F0.00039261876717707107
sI3019
F0.00039261876717707107
sI973
F0.00039261876717707107
sI982
F0.00039261876717707107
sI984
F0.00039261876717707107
sI985
F0.00039261876717707107
sI990
F0.00039261876717707107
sI997
F0.00039261876717707107
sI1000
F0.00039261876717707107
sI1002
F0.00039261876717707107
sI3053
F0.00039261876717707107
sI1013
F0.00039261876717707107
sI1034
F0.00039261876717707107
sI1092
F0.00039261876717707107
sI7879
F0.00039261876717707107
sI1140
F0.00039261876717707107
sI1143
F0.00039261876717707107
sI1144
F0.00039261876717707107
sI1159
F0.00039261876717707107
sI3220
F0.00039261876717707107
sI1184
F0.00039261876717707107
sI7337
F0.00039261876717707107
sI1196
F0.00039261876717707107
sI1205
F0.00039261876717707107
sI15547
F0.00039261876717707107
sI889
F0.00039261876717707107
sI1244
F0.00039261876717707107
sI1249
F0.00039261876717707107
sI5348
F0.00039261876717707107
sI1255
F0.00039261876717707107
sI3311
F0.00039261876717707107
sI1267
F0.00039261876717707107
sI21756
F0.00039261876717707107
sI1290
F0.00039261876717707107
sI1297
F0.00078523753435414214
sI1299
F0.00039261876717707107
sI13871
F0.00039261876717707107
sI2409
F0.00039261876717707107
sI3369
F0.00039261876717707107
sI1323
F0.00039261876717707107
sI1327
F0.00039261876717707107
sI9441
F0.00039261876717707107
sI13641
F0.00039261876717707107
sI2159
F0.00039261876717707107
sI1357
F0.00039261876717707107
sI2275
F0.00039261876717707107
sI1382
F0.00039261876717707107
sI1417
F0.00039261876717707107
sI1423
F0.00039261876717707107
sI3480
F0.00039261876717707107
sI1443
F0.00039261876717707107
sI1446
F0.00039261876717707107
sI3512
F0.00039261876717707107
sI7617
F0.00039261876717707107
sI1478
F0.00039261876717707107
sI5580
F0.00039261876717707107
sI6392
F0.00039261876717707107
sI3549
F0.00039261876717707107
sI1516
F0.00039261876717707107
sI1519
F0.00039261876717707107
sI1525
F0.00039261876717707107
sI1538
F0.00039261876717707107
sI27222
F0.00039261876717707107
sI3594
F0.00039261876717707107
sI5645
F0.00039261876717707107
sI36369
F0.00039261876717707107
sI1583
F0.00039261876717707107
sI3634
F0.00039261876717707107
sI3638
F0.00039261876717707107
sI1601
F0.00039261876717707107
sI30278
F0.00039261876717707107
sI5725
F0.00039261876717707107
sI1631
F0.00039261876717707107
sI1638
F0.00039261876717707107
sI11886
F0.00039261876717707107
sI278
F0.00039261876717707107
sI1680
F0.00039261876717707107
sI3739
F0.00039261876717707107
sI3747
F0.00039261876717707107
sI3775
F0.00039261876717707107
sI1735
F0.00039261876717707107
sI1737
F0.00039261876717707107
sI3800
F0.00039261876717707107
sI3804
F0.00039261876717707107
sI2342
F0.00039261876717707107
sI1786
F0.00039261876717707107
sI1788
F0.00039261876717707107
sI1794
F0.00039261876717707107
sI7947
F0.00039261876717707107
sI60
F0.00078523753435414214
sI3856
F0.00039261876717707107
sI1814
F0.00039261876717707107
sI303
F0.00039261876717707107
sI3879
F0.00039261876717707107
sI1837
F0.00039261876717707107
sI1851
F0.00039261876717707107
sI1857
F0.00039261876717707107
sI36675
F0.00039261876717707107
sI4406
F0.00039261876717707107
sI1868
F0.00039261876717707107
sI1873
F0.00039261876717707107
sI313
F0.00039261876717707107
sI6000
F0.00039261876717707107
sI3957
F0.00039261876717707107
sI1930
F0.00039261876717707107
sI4008
F0.00039261876717707107
sI1963
F0.00039261876717707107
sI1966
F0.00039261876717707107
sI1974
F0.00039261876717707107
sI4054
F0.00039261876717707107
sI4055
F0.00039261876717707107
sI2008
F0.00039261876717707107
sI2020
F0.00039261876717707107
sI2039
F0.00039261876717707107
sI2523
F0.00039261876717707107
sag2
(g3
tRp8
I0
F0.31083844580777098
sI1
F0.11860940695296524
sI2
F0.069529652351738247
sI3
F0.044989775051124746
sI4
F0.036809815950920248
sI5
F0.028629856850715747
sI6
F0.021472392638036811
sI7
F0.019427402862985686
sI8
F0.013292433537832311
sI9
F0.013292433537832311
sI10
F0.014314928425357873
sI11
F0.0051124744376278121
sI12
F0.0071574642126789366
sI13
F0.0061349693251533744
sI14
F0.010224948875255624
sI15
F0.0061349693251533744
sI16
F0.009202453987730062
sI17
F0.0071574642126789366
sI18
F0.0040899795501022499
sI19
F0.0061349693251533744
sI20
F0.0061349693251533744
sI21
F0.0081799591002044997
sI22
F0.0061349693251533744
sI8215
F0.0010224948875255625
sI24
F0.0071574642126789366
sI25
F0.0051124744376278121
sI26
F0.0030674846625766872
sI27
F0.0061349693251533744
sI28
F0.0030674846625766872
sI29
F0.0051124744376278121
sI30
F0.010224948875255624
sI31
F0.0051124744376278121
sI32
F0.0030674846625766872
sI34
F0.0030674846625766872
sI35
F0.0020449897750511249
sI36
F0.0020449897750511249
sI37
F0.0020449897750511249
sI38
F0.0040899795501022499
sI40
F0.0020449897750511249
sI41
F0.0010224948875255625
sI43
F0.0040899795501022499
sI44
F0.0020449897750511249
sI45
F0.0010224948875255625
sI46
F0.0040899795501022499
sI48
F0.0010224948875255625
sI49
F0.0020449897750511249
sI51
F0.0020449897750511249
sI52
F0.0030674846625766872
sI53
F0.0030674846625766872
sI54
F0.0010224948875255625
sI55
F0.0010224948875255625
sI56
F0.0030674846625766872
sI57
F0.0020449897750511249
sI59
F0.0020449897750511249
sI61
F0.0010224948875255625
sI63
F0.0020449897750511249
sI64
F0.0010224948875255625
sI66
F0.0010224948875255625
sI68
F0.0010224948875255625
sI69
F0.0020449897750511249
sI70
F0.0020449897750511249
sI72
F0.0010224948875255625
sI585
F0.0010224948875255625
sI75
F0.0010224948875255625
sI588
F0.0010224948875255625
sI77
F0.0010224948875255625
sI78
F0.0010224948875255625
sI79
F0.0010224948875255625
sI80
F0.0010224948875255625
sI82
F0.0020449897750511249
sI83
F0.0010224948875255625
sI85
F0.0010224948875255625
sI90
F0.0010224948875255625
sI92
F0.0010224948875255625
sI94
F0.0010224948875255625
sI97
F0.0020449897750511249
sI610
F0.0010224948875255625
sI612
F0.0010224948875255625
sI101
F0.0010224948875255625
sI104
F0.0020449897750511249
sI106
F0.0010224948875255625
sI109
F0.0010224948875255625
sI622
F0.0010224948875255625
sI628
F0.0010224948875255625
sI120
F0.0010224948875255625
sI125
F0.0010224948875255625
sI127
F0.0020449897750511249
sI128
F0.0020449897750511249
sI137
F0.0010224948875255625
sI650
F0.0010224948875255625
sI23
F0.009202453987730062
sI653
F0.0010224948875255625
sI142
F0.0020449897750511249
sI2193
F0.0010224948875255625
sI1731
F0.0010224948875255625
sI149
F0.0010224948875255625
sI154
F0.0030674846625766872
sI156
F0.0010224948875255625
sI161
F0.0010224948875255625
sI162
F0.0010224948875255625
sI687
F0.0010224948875255625
sI9877
F0.0010224948875255625
sI180
F0.0010224948875255625
sI181
F0.0010224948875255625
sI185
F0.0010224948875255625
sI186
F0.0020449897750511249
sI2080
F0.0010224948875255625
sI195
F0.0010224948875255625
sI2760
F0.0010224948875255625
sI2261
F0.0010224948875255625
sI219
F0.0010224948875255625
sI228
F0.0020449897750511249
sI230
F0.0010224948875255625
sI50694
F0.0010224948875255625
sI238
F0.0010224948875255625
sI243
F0.0010224948875255625
sI2105
F0.0010224948875255625
sI250
F0.0010224948875255625
sI274
F0.0010224948875255625
sI794
F0.0010224948875255625
sI292
F0.0010224948875255625
sI293
F0.0010224948875255625
sI807
F0.0010224948875255625
sI298
F0.0010224948875255625
sI300
F0.0010224948875255625
sI12594
F0.0010224948875255625
sI308
F0.0010224948875255625
sI1161
F0.0010224948875255625
sI825
F0.0010224948875255625
sI1338
F0.0010224948875255625
sI319
F0.0010224948875255625
sI324
F0.0010224948875255625
sI1862
F0.0010224948875255625
sI141
F0.0010224948875255625
sI1081
F0.0010224948875255625
sI857
F0.0010224948875255625
sI2913
F0.0010224948875255625
sI356
F0.0010224948875255625
sI358
F0.0010224948875255625
sI145
F0.0010224948875255625
sI4461
F0.0010224948875255625
sI375
F0.0010224948875255625
sI383
F0.0010224948875255625
sI388
F0.0010224948875255625
sI397
F0.0010224948875255625
sI25999
F0.0010224948875255625
sI426
F0.0010224948875255625
sI16316
F0.0010224948875255625
sI450
F0.0010224948875255625
sI76
F0.0010224948875255625
sI462
F0.0010224948875255625
sI3542
F0.0010224948875255625
sI476
F0.0010224948875255625
sI487
F0.0010224948875255625
sI1512
F0.0010224948875255625
sI1001
F0.0010224948875255625
sI492
F0.0010224948875255625
sI1016
F0.0010224948875255625
sI14845
F0.0010224948875255625
sI510
F0.0010224948875255625
sag2
(g3
tRp9
I0
F0.27796610169491526
sI1
F0.11525423728813559
sI2
F0.070056497175141244
sI3
F0.043502824858757061
sI4
F0.036158192090395481
sI5
F0.031638418079096044
sI6
F0.02655367231638418
sI7
F0.022598870056497175
sI8
F0.017514124293785311
sI9
F0.022033898305084745
sI10
F0.023728813559322035
sI11
F0.011864406779661017
sI12
F0.011864406779661017
sI13
F0.010734463276836158
sI14
F0.0084745762711864406
sI15
F0.011864406779661017
sI16
F0.0090395480225988704
sI17
F0.0079096045197740109
sI18
F0.0056497175141242938
sI19
F0.0056497175141242938
sI20
F0.0090395480225988704
sI21
F0.0056497175141242938
sI22
F0.0062146892655367235
sI23
F0.0056497175141242938
sI24
F0.0073446327683615821
sI25
F0.0062146892655367235
sI26
F0.0016949152542372881
sI27
F0.0056497175141242938
sI28
F0.0067796610169491523
sI29
F0.0028248587570621469
sI30
F0.0039548022598870055
sI31
F0.0028248587570621469
sI32
F0.0011299435028248588
sI33
F0.0011299435028248588
sI34
F0.0033898305084745762
sI35
F0.0033898305084745762
sI36
F0.0011299435028248588
sI37
F0.0045197740112994352
sI38
F0.0039548022598870055
sI39
F0.0022598870056497176
sI40
F0.0016949152542372881
sI41
F0.0022598870056497176
sI42
F0.0011299435028248588
sI43
F0.0016949152542372881
sI44
F0.0016949152542372881
sI45
F0.0016949152542372881
sI46
F0.0022598870056497176
sI47
F0.0005649717514124294
sI48
F0.0011299435028248588
sI49
F0.0016949152542372881
sI50
F0.0022598870056497176
sI51
F0.0016949152542372881
sI52
F0.0005649717514124294
sI53
F0.0011299435028248588
sI54
F0.0011299435028248588
sI55
F0.0011299435028248588
sI56
F0.0011299435028248588
sI57
F0.0011299435028248588
sI22586
F0.0005649717514124294
sI59
F0.0016949152542372881
sI60
F0.0005649717514124294
sI61
F0.0011299435028248588
sI62
F0.0011299435028248588
sI63
F0.0011299435028248588
sI53824
F0.0005649717514124294
sI66
F0.0011299435028248588
sI67
F0.0011299435028248588
sI69
F0.0016949152542372881
sI70
F0.0005649717514124294
sI72
F0.0005649717514124294
sI74
F0.0011299435028248588
sI75
F0.0011299435028248588
sI76
F0.0016949152542372881
sI77
F0.0005649717514124294
sI81
F0.0016949152542372881
sI595
F0.0005649717514124294
sI87
F0.0005649717514124294
sI88
F0.0005649717514124294
sI90
F0.0005649717514124294
sI4623
F0.0005649717514124294
sI92
F0.0011299435028248588
sI93
F0.0005649717514124294
sI94
F0.0005649717514124294
sI95
F0.0011299435028248588
sI96
F0.0005649717514124294
sI97
F0.0005649717514124294
sI102
F0.0005649717514124294
sI3174
F0.0005649717514124294
sI103
F0.0005649717514124294
sI105
F0.0011299435028248588
sI1642
F0.0005649717514124294
sI108
F0.0005649717514124294
sI110
F0.0011299435028248588
sI111
F0.0005649717514124294
sI6163
F0.0005649717514124294
sI118
F0.0011299435028248588
sI119
F0.0022598870056497176
sI121
F0.0005649717514124294
sI3194
F0.0005649717514124294
sI26235
F0.0005649717514124294
sI125
F0.0005649717514124294
sI126
F0.0016949152542372881
sI127
F0.0011299435028248588
sI128
F0.0005649717514124294
sI131
F0.0005649717514124294
sI133
F0.0005649717514124294
sI3207
F0.0005649717514124294
sI136
F0.0005649717514124294
sI137
F0.0005649717514124294
sI138
F0.0005649717514124294
sI141
F0.0005649717514124294
sI24206
F0.0005649717514124294
sI1171
F0.0005649717514124294
sI148
F0.0005649717514124294
sI151
F0.0005649717514124294
sI2201
F0.0005649717514124294
sI154
F0.0005649717514124294
sI155
F0.0005649717514124294
sI156
F0.0005649717514124294
sI1386
F0.0005649717514124294
sI670
F0.0005649717514124294
sI161
F0.0005649717514124294
sI168
F0.0011299435028248588
sI171
F0.0005649717514124294
sI2732
F0.0005649717514124294
sI173
F0.0005649717514124294
sI1710
F0.0005649717514124294
sI285
F0.0005649717514124294
sI688
F0.0005649717514124294
sI177
F0.0005649717514124294
sI1203
F0.0005649717514124294
sI181
F0.0011299435028248588
sI182
F0.0005649717514124294
sI183
F0.0005649717514124294
sI186
F0.0005649717514124294
sI4283
F0.0005649717514124294
sI700
F0.0005649717514124294
sI190
F0.0005649717514124294
sI191
F0.0005649717514124294
sI192
F0.0005649717514124294
sI193
F0.0005649717514124294
sI195
F0.0011299435028248588
sI196
F0.0005649717514124294
sI2757
F0.0005649717514124294
sI199
F0.0005649717514124294
sI200
F0.0005649717514124294
sI201
F0.0005649717514124294
sI719
F0.0005649717514124294
sI211
F0.0011299435028248588
sI724
F0.0005649717514124294
sI215
F0.0005649717514124294
sI728
F0.0005649717514124294
sI217
F0.0005649717514124294
sI1243
F0.0005649717514124294
sI2782
F0.0005649717514124294
sI2853
F0.0005649717514124294
sI945
F0.0005649717514124294
sI123
F0.0005649717514124294
sI3302
F0.0005649717514124294
sI2565
F0.0005649717514124294
sI238
F0.0005649717514124294
sI241
F0.0005649717514124294
sI6355
F0.0005649717514124294
sI245
F0.0005649717514124294
sI2298
F0.0005649717514124294
sI605
F0.0005649717514124294
sI259
F0.0005649717514124294
sI1285
F0.0005649717514124294
sI777
F0.0005649717514124294
sI266
F0.0005649717514124294
sI267
F0.0005649717514124294
sI268
F0.0005649717514124294
sI272
F0.0005649717514124294
sI273
F0.0005649717514124294
sI1814
F0.0005649717514124294
sI280
F0.0005649717514124294
sI282
F0.0005649717514124294
sI7453
F0.0005649717514124294
sI1312
F0.0005649717514124294
sI290
F0.0005649717514124294
sI293
F0.0005649717514124294
sI58
F0.0011299435028248588
sI3367
F0.0005649717514124294
sI1586
F0.0005649717514124294
sI306
F0.0005649717514124294
sI821
F0.0005649717514124294
sI2360
F0.0005649717514124294
sI452
F0.0005649717514124294
sI565
F0.0005649717514124294
sI1857
F0.0005649717514124294
sI329
F0.0011299435028248588
sI330
F0.0005649717514124294
sI334
F0.0005649717514124294
sI2616
F0.0005649717514124294
sI142
F0.0011299435028248588
sI349
F0.0005649717514124294
sI357
F0.0005649717514124294
sI13671
F0.0005649717514124294
sI362
F0.0005649717514124294
sI3435
F0.0005649717514124294
sI6514
F0.0005649717514124294
sI372
F0.0005649717514124294
sI888
F0.0005649717514124294
sI9597
F0.0005649717514124294
sI3454
F0.0005649717514124294
sI383
F0.0005649717514124294
sI64
F0.0016949152542372881
sI513
F0.0005649717514124294
sI388
F0.0005649717514124294
sI236
F0.0005649717514124294
sI179
F0.0005649717514124294
sI413
F0.0005649717514124294
sI428
F0.0005649717514124294
sI2461
F0.0005649717514124294
sI5553
F0.0005649717514124294
sI243
F0.0005649717514124294
sI1600
F0.0005649717514124294
sI4026
F0.0005649717514124294
sI443
F0.0005649717514124294
sI3524
F0.0005649717514124294
sI462
F0.0005649717514124294
sI469
F0.0005649717514124294
sI1060
F0.0005649717514124294
sI478
F0.0005649717514124294
sI5089
F0.0005649717514124294
sI8677
F0.0005649717514124294
sI488
F0.0005649717514124294
sI1002
F0.0005649717514124294
sI1005
F0.0005649717514124294
sI5614
F0.0005649717514124294
sI3056
F0.0005649717514124294
sI499
F0.0005649717514124294
sI502
F0.0005649717514124294
sI1023
F0.0005649717514124294
sa.