(lp1
ccollections
defaultdict
p2
(c__builtin__
float
p3
tRp4
I0
F0.33269107257546565
sI1
F0.12010276172125883
sI2
F0.070648683365446371
sI3
F0.044958253050738597
sI4
F0.030186255619781631
sI5
F0.024405908798972382
sI6
F0.01348747591522158
sI7
F0.014129736673089274
sI8
F0.014771997430956968
sI9
F0.011560693641618497
sI10
F0.0083493898522800265
sI11
F0.0077071290944123313
sI12
F0.0064226075786769426
sI13
F0.0051380860629415539
sI14
F0.0083493898522800265
sI15
F0.0057803468208092483
sI16
F0.0096339113680154135
sI17
F0.0038535645472061657
sI18
F0.0051380860629415539
sI19
F0.007064868336544637
sI20
F0.0038535645472061657
sI21
F0.0038535645472061657
sI22
F0.0038535645472061657
sI23
F0.002569043031470777
sI24
F0.0038535645472061657
sI6169
F0.00064226075786769424
sI26
F0.0038535645472061657
sI27
F0.002569043031470777
sI28
F0.002569043031470777
sI29
F0.0044958253050738596
sI30
F0.0038535645472061657
sI31
F0.0012845215157353885
sI32
F0.0032113037893384713
sI33
F0.0032113037893384713
sI34
F0.00064226075786769424
sI35
F0.0012845215157353885
sI36
F0.0019267822736030828
sI37
F0.0019267822736030828
sI38
F0.0012845215157353885
sI39
F0.0019267822736030828
sI40
F0.0019267822736030828
sI41
F0.0012845215157353885
sI42
F0.0012845215157353885
sI43
F0.00064226075786769424
sI44
F0.0012845215157353885
sI45
F0.0019267822736030828
sI46
F0.0012845215157353885
sI47
F0.0032113037893384713
sI48
F0.0019267822736030828
sI49
F0.0012845215157353885
sI50
F0.00064226075786769424
sI51
F0.002569043031470777
sI52
F0.002569043031470777
sI53
F0.0019267822736030828
sI54
F0.0012845215157353885
sI55
F0.00064226075786769424
sI56
F0.00064226075786769424
sI57
F0.0012845215157353885
sI58
F0.0012845215157353885
sI59
F0.0019267822736030828
sI60
F0.00064226075786769424
sI1034
F0.00064226075786769424
sI62
F0.0012845215157353885
sI63
F0.0019267822736030828
sI64
F0.0032113037893384713
sI65
F0.00064226075786769424
sI66
F0.0019267822736030828
sI67
F0.0032113037893384713
sI68
F0.0019267822736030828
sI70
F0.0038535645472061657
sI71
F0.00064226075786769424
sI72
F0.0012845215157353885
sI73
F0.0012845215157353885
sI74
F0.00064226075786769424
sI75
F0.00064226075786769424
sI76
F0.0032113037893384713
sI589
F0.00064226075786769424
sI78
F0.00064226075786769424
sI79
F0.00064226075786769424
sI2129
F0.00064226075786769424
sI83
F0.00064226075786769424
sI596
F0.00064226075786769424
sI85
F0.0012845215157353885
sI87
F0.00064226075786769424
sI88
F0.00064226075786769424
sI91
F0.00064226075786769424
sI92
F0.0012845215157353885
sI93
F0.0019267822736030828
sI95
F0.00064226075786769424
sI97
F0.00064226075786769424
sI2658
F0.00064226075786769424
sI187
F0.00064226075786769424
sI2660
F0.00064226075786769424
sI101
F0.0012845215157353885
sI36369
F0.00064226075786769424
sI105
F0.00064226075786769424
sI103
F0.0019267822736030828
sI108
F0.0012845215157353885
sI109
F0.00064226075786769424
sI110
F0.0019267822736030828
sI111
F0.00064226075786769424
sI113
F0.0012845215157353885
sI628
F0.00064226075786769424
sI117
F0.00064226075786769424
sI617
F0.00064226075786769424
sI632
F0.00064226075786769424
sI3775
F0.00064226075786769424
sI637
F0.0012845215157353885
sI639
F0.0012845215157353885
sI128
F0.00064226075786769424
sI129
F0.0012845215157353885
sI131
F0.0012845215157353885
sI132
F0.00064226075786769424
sI133
F0.00064226075786769424
sI134
F0.0012845215157353885
sI135
F0.0019267822736030828
sI136
F0.00064226075786769424
sI137
F0.00064226075786769424
sI139
F0.0012845215157353885
sI143
F0.00064226075786769424
sI1680
F0.00064226075786769424
sI5266
F0.00064226075786769424
sI1684
F0.00064226075786769424
sI149
F0.00064226075786769424
sI25
F0.002569043031470777
sI153
F0.00064226075786769424
sI155
F0.00064226075786769424
sI158
F0.00064226075786769424
sI2409
F0.00064226075786769424
sI1184
F0.00064226075786769424
sI673
F0.00064226075786769424
sI162
F0.00064226075786769424
sI163
F0.00064226075786769424
sI677
F0.00064226075786769424
sI678
F0.00064226075786769424
sI2727
F0.00064226075786769424
sI7337
F0.00064226075786769424
sI171
F0.00064226075786769424
sI2220
F0.00064226075786769424
sI174
F0.0012845215157353885
sI691
F0.00064226075786769424
sI180
F0.00064226075786769424
sI1205
F0.00064226075786769424
sI183
F0.00064226075786769424
sI185
F0.00064226075786769424
sI15547
F0.00064226075786769424
sI188
F0.0019267822736030828
sI190
F0.00064226075786769424
sI191
F0.00064226075786769424
sI8736
F0.00064226075786769424
sI195
F0.00064226075786769424
sI196
F0.00064226075786769424
sI5803
F0.00064226075786769424
sI710
F0.00064226075786769424
sI545
F0.00064226075786769424
sI3191
F0.00064226075786769424
sI205
F0.0012845215157353885
sI206
F0.00064226075786769424
sI207
F0.00064226075786769424
sI120
F0.00064226075786769424
sI722
F0.00064226075786769424
sI211
F0.00064226075786769424
sI3800
F0.00064226075786769424
sI218
F0.00064226075786769424
sI4316
F0.00064226075786769424
sI7390
F0.00064226075786769424
sI1249
F0.00064226075786769424
sI228
F0.00064226075786769424
sI721
F0.00064226075786769424
sI1256
F0.00064226075786769424
sI3879
F0.00064226075786769424
sI242
F0.00064226075786769424
sI1267
F0.00064226075786769424
sI245
F0.00064226075786769424
sI247
F0.00064226075786769424
sI127
F0.00064226075786769424
sI256
F0.00064226075786769424
sI2819
F0.00064226075786769424
sI264
F0.00064226075786769424
sI778
F0.0012845215157353885
sI780
F0.00064226075786769424
sI4365
F0.00064226075786769424
sI4612
F0.00064226075786769424
sI3856
F0.00064226075786769424
sI1299
F0.00064226075786769424
sI10011
F0.00064226075786769424
sI288
F0.00064226075786769424
sI290
F0.00064226075786769424
sI292
F0.00064226075786769424
sI2342
F0.00064226075786769424
sI295
F0.00064226075786769424
sI3369
F0.00064226075786769424
sI1323
F0.00064226075786769424
sI3634
F0.00064226075786769424
sI303
F0.00064226075786769424
sI307
F0.00064226075786769424
sI308
F0.00064226075786769424
sI309
F0.00064226075786769424
sI4406
F0.00064226075786769424
sI13871
F0.00064226075786769424
sI316
F0.00064226075786769424
sI2312
F0.00064226075786769424
sI319
F0.00064226075786769424
sI198
F0.00064226075786769424
sI181
F0.00064226075786769424
sI36675
F0.00064226075786769424
sI2886
F0.00064226075786769424
sI737
F0.00064226075786769424
sI2159
F0.00064226075786769424
sI1357
F0.00064226075786769424
sI1873
F0.00064226075786769424
sI318
F0.00064226075786769424
sI853
F0.00064226075786769424
sI625
F0.00064226075786769424
sI344
F0.00064226075786769424
sI346
F0.00064226075786769424
sI517
F0.00064226075786769424
sI351
F0.00064226075786769424
sI2405
F0.00064226075786769424
sI358
F0.00064226075786769424
sI530
F0.00064226075786769424
sI572
F0.00064226075786769424
sI4461
F0.00064226075786769424
sI367
F0.00064226075786769424
sI5490
F0.00064226075786769424
sI8553
F0.00064226075786769424
sI3957
F0.00064226075786769424
sI251
F0.0012845215157353885
sI376
F0.00064226075786769424
sI575
F0.00064226075786769424
sI380
F0.00064226075786769424
sI8061
F0.00064226075786769424
sI383
F0.00064226075786769424
sI385
F0.00064226075786769424
sI902
F0.00064226075786769424
sI1857
F0.00064226075786769424
sI1417
F0.00064226075786769424
sI1930
F0.00064226075786769424
sI1859
F0.00064226075786769424
sI2453
F0.00064226075786769424
sI222
F0.0012845215157353885
sI1092
F0.00064226075786769424
sI420
F0.00064226075786769424
sI582
F0.00064226075786769424
sI934
F0.00064226075786769424
sI426
F0.00064226075786769424
sI10994
F0.00064226075786769424
sI4526
F0.00064226075786769424
sI584
F0.00064226075786769424
sI243
F0.00064226075786769424
sI1974
F0.00064226075786769424
sI1583
F0.00064226075786769424
sI2497
F0.00064226075786769424
sI452
F0.00064226075786769424
sI1478
F0.00064226075786769424
sI455
F0.00064226075786769424
sI457
F0.00064226075786769424
sI3019
F0.00064226075786769424
sI461
F0.00064226075786769424
sI77
F0.00064226075786769424
sI2516
F0.00064226075786769424
sI1631
F0.00064226075786769424
sI992
F0.00064226075786769424
sI995
F0.00064226075786769424
sI5604
F0.00064226075786769424
sI1446
F0.00064226075786769424
sI81
F0.00064226075786769424
sI1516
F0.00064226075786769424
sI3053
F0.00064226075786769424
sI1519
F0.00064226075786769424
sI1244
F0.00064226075786769424
sI119
F0.0012845215157353885
sag2
(g3
tRp5
I0
F0.27692307692307694
sI1
F0.11282051282051282
sI2
F0.070769230769230765
sI3
F0.044615384615384612
sI4
F0.036410256410256407
sI5
F0.030769230769230771
sI6
F0.026153846153846153
sI7
F0.021538461538461538
sI8
F0.016923076923076923
sI9
F0.022564102564102566
sI10
F0.023076923076923078
sI11
F0.013846153846153847
sI12
F0.011794871794871795
sI13
F0.010769230769230769
sI14
F0.0087179487179487175
sI15
F0.011794871794871795
sI16
F0.0087179487179487175
sI17
F0.0076923076923076927
sI18
F0.0051282051282051282
sI19
F0.0061538461538461538
sI20
F0.0087179487179487175
sI21
F0.0056410256410256415
sI22
F0.0056410256410256415
sI23
F0.0056410256410256415
sI24
F0.0082051282051282051
sI25
F0.0056410256410256415
sI26
F0.0020512820512820513
sI27
F0.0056410256410256415
sI28
F0.0061538461538461538
sI29
F0.0030769230769230769
sI30
F0.0035897435897435897
sI31
F0.0030769230769230769
sI32
F0.0015384615384615385
sI33
F0.0015384615384615385
sI34
F0.0035897435897435897
sI35
F0.0035897435897435897
sI36
F0.0015384615384615385
sI37
F0.0041025641025641026
sI38
F0.0041025641025641026
sI39
F0.0025641025641025641
sI40
F0.0015384615384615385
sI41
F0.0020512820512820513
sI42
F0.0010256410256410256
sI43
F0.0020512820512820513
sI44
F0.0015384615384615385
sI45
F0.0020512820512820513
sI46
F0.0020512820512820513
sI47
F0.00051282051282051282
sI48
F0.0010256410256410256
sI49
F0.0020512820512820513
sI50
F0.0020512820512820513
sI51
F0.0015384615384615385
sI52
F0.00051282051282051282
sI53
F0.0010256410256410256
sI54
F0.0010256410256410256
sI55
F0.0015384615384615385
sI56
F0.0015384615384615385
sI57
F0.0010256410256410256
sI22586
F0.00051282051282051282
sI59
F0.0015384615384615385
sI60
F0.0010256410256410256
sI61
F0.0010256410256410256
sI62
F0.0010256410256410256
sI63
F0.0010256410256410256
sI53824
F0.00051282051282051282
sI66
F0.0010256410256410256
sI67
F0.0015384615384615385
sI69
F0.0015384615384615385
sI70
F0.0010256410256410256
sI71
F0.00051282051282051282
sI72
F0.00051282051282051282
sI74
F0.0010256410256410256
sI75
F0.0010256410256410256
sI76
F0.0015384615384615385
sI77
F0.00051282051282051282
sI78
F0.00051282051282051282
sI81
F0.0015384615384615385
sI595
F0.0010256410256410256
sI87
F0.00051282051282051282
sI88
F0.00051282051282051282
sI90
F0.00051282051282051282
sI4623
F0.00051282051282051282
sI92
F0.0010256410256410256
sI93
F0.00051282051282051282
sI94
F0.00051282051282051282
sI95
F0.0010256410256410256
sI96
F0.00051282051282051282
sI97
F0.00051282051282051282
sI4283
F0.00051282051282051282
sI102
F0.00051282051282051282
sI3174
F0.00051282051282051282
sI103
F0.00051282051282051282
sI105
F0.0010256410256410256
sI1642
F0.00051282051282051282
sI108
F0.00051282051282051282
sI110
F0.0010256410256410256
sI111
F0.00051282051282051282
sI6163
F0.00051282051282051282
sI116
F0.00051282051282051282
sI118
F0.0010256410256410256
sI119
F0.0020512820512820513
sI120
F0.00051282051282051282
sI121
F0.00051282051282051282
sI3194
F0.00051282051282051282
sI26235
F0.00051282051282051282
sI125
F0.00051282051282051282
sI126
F0.0015384615384615385
sI127
F0.0010256410256410256
sI128
F0.00051282051282051282
sI129
F0.00051282051282051282
sI131
F0.00051282051282051282
sI133
F0.00051282051282051282
sI3207
F0.00051282051282051282
sI136
F0.0015384615384615385
sI137
F0.00051282051282051282
sI138
F0.00051282051282051282
sI141
F0.00051282051282051282
sI24206
F0.00051282051282051282
sI1171
F0.00051282051282051282
sI148
F0.00051282051282051282
sI151
F0.00051282051282051282
sI2201
F0.00051282051282051282
sI154
F0.00051282051282051282
sI155
F0.00051282051282051282
sI156
F0.00051282051282051282
sI1386
F0.00051282051282051282
sI670
F0.00051282051282051282
sI161
F0.00051282051282051282
sI168
F0.0010256410256410256
sI171
F0.00051282051282051282
sI2732
F0.00051282051282051282
sI173
F0.00051282051282051282
sI1710
F0.00051282051282051282
sI285
F0.00051282051282051282
sI688
F0.00051282051282051282
sI177
F0.00051282051282051282
sI1203
F0.00051282051282051282
sI181
F0.0010256410256410256
sI182
F0.00051282051282051282
sI183
F0.00051282051282051282
sI186
F0.00051282051282051282
sI187
F0.00051282051282051282
sI700
F0.00051282051282051282
sI190
F0.00051282051282051282
sI191
F0.00051282051282051282
sI192
F0.00051282051282051282
sI193
F0.00051282051282051282
sI195
F0.0010256410256410256
sI196
F0.00051282051282051282
sI2757
F0.00051282051282051282
sI199
F0.00051282051282051282
sI200
F0.00051282051282051282
sI201
F0.00051282051282051282
sI719
F0.00051282051282051282
sI2424
F0.00051282051282051282
sI211
F0.0010256410256410256
sI724
F0.00051282051282051282
sI215
F0.0010256410256410256
sI728
F0.00051282051282051282
sI217
F0.00051282051282051282
sI1243
F0.00051282051282051282
sI220
F0.00051282051282051282
sI2782
F0.00051282051282051282
sI2853
F0.00051282051282051282
sI9441
F0.00051282051282051282
sI123
F0.00051282051282051282
sI3302
F0.00051282051282051282
sI2565
F0.00051282051282051282
sI238
F0.00051282051282051282
sI241
F0.00051282051282051282
sI6355
F0.00051282051282051282
sI245
F0.00051282051282051282
sI2298
F0.00051282051282051282
sI605
F0.00051282051282051282
sI259
F0.00051282051282051282
sI1285
F0.00051282051282051282
sI777
F0.00051282051282051282
sI266
F0.00051282051282051282
sI267
F0.00051282051282051282
sI268
F0.00051282051282051282
sI272
F0.00051282051282051282
sI273
F0.00051282051282051282
sI1814
F0.00051282051282051282
sI280
F0.00051282051282051282
sI282
F0.00051282051282051282
sI7453
F0.00051282051282051282
sI1312
F0.00051282051282051282
sI290
F0.00051282051282051282
sI293
F0.00051282051282051282
sI58
F0.0010256410256410256
sI3367
F0.00051282051282051282
sI532
F0.00051282051282051282
sI1586
F0.00051282051282051282
sI2696
F0.00051282051282051282
sI306
F0.00051282051282051282
sI821
F0.00051282051282051282
sI2360
F0.00051282051282051282
sI452
F0.00051282051282051282
sI565
F0.00051282051282051282
sI1857
F0.00051282051282051282
sI329
F0.0015384615384615385
sI330
F0.00051282051282051282
sI334
F0.00051282051282051282
sI2616
F0.00051282051282051282
sI23890
F0.00051282051282051282
sI142
F0.0010256410256410256
sI4950
F0.00051282051282051282
sI860
F0.00051282051282051282
sI349
F0.00051282051282051282
sI353
F0.00051282051282051282
sI357
F0.00051282051282051282
sI13671
F0.00051282051282051282
sI362
F0.00051282051282051282
sI3435
F0.00051282051282051282
sI6514
F0.00051282051282051282
sI372
F0.00051282051282051282
sI888
F0.00051282051282051282
sI9597
F0.00051282051282051282
sI3454
F0.00051282051282051282
sI383
F0.00051282051282051282
sI64
F0.0015384615384615385
sI513
F0.00051282051282051282
sI388
F0.00051282051282051282
sI236
F0.00051282051282051282
sI179
F0.00051282051282051282
sI153
F0.00051282051282051282
sI413
F0.00051282051282051282
sI421
F0.00051282051282051282
sI428
F0.00051282051282051282
sI2461
F0.00051282051282051282
sI5553
F0.00051282051282051282
sI243
F0.00051282051282051282
sI1600
F0.00051282051282051282
sI4026
F0.00051282051282051282
sI443
F0.00051282051282051282
sI3524
F0.00051282051282051282
sI462
F0.00051282051282051282
sI469
F0.00051282051282051282
sI1060
F0.00051282051282051282
sI478
F0.00051282051282051282
sI5089
F0.00051282051282051282
sI8677
F0.00051282051282051282
sI488
F0.00051282051282051282
sI1002
F0.00051282051282051282
sI1005
F0.00051282051282051282
sI5614
F0.00051282051282051282
sI3056
F0.00051282051282051282
sI499
F0.00051282051282051282
sI502
F0.00051282051282051282
sI1023
F0.00051282051282051282
sI945
F0.00051282051282051282
sag2
(g3
tRp6
I0
F0.23669225055706858
sI1
F0.094825451844515976
sI2
F0.059173062639267145
sI3
F0.041346868036642732
sI4
F0.031195840554592721
sI5
F0.02550136172319881
sI6
F0.021292399108690269
sI7
F0.016093092349591484
sI8
F0.016835850458034166
sI9
F0.013369645951968309
sI10
F0.0089130973013122061
sI11
F0.0099034414459024511
sI12
F0.010893785590492696
sI13
F0.0099034414459024511
sI14
F0.0094082693736073277
sI15
F0.0074275810844268387
sI16
F0.0081703391928695229
sI17
F0.0066848229759841546
sI18
F0.0059420648675414705
sI19
F0.0066848229759841546
sI20
F0.0056944788313939097
sI21
F0.0059420648675414705
sI22
F0.0071799950482792771
sI23
F0.0086655112651646445
sI24
F0.0081703391928695229
sI25
F0.0056944788313939097
sI26
F0.0049517207229512255
sI27
F0.0049517207229512255
sI28
F0.0049517207229512255
sI29
F0.0037137905422134194
sI30
F0.005446892795246348
sI31
F0.0037137905422134194
sI32
F0.002723446397623174
sI33
F0.0022282743253280515
sI34
F0.002723446397623174
sI35
F0.0039613765783609806
sI36
F0.0019806882891804903
sI37
F0.0029710324337707352
sI38
F0.0042089626145085414
sI39
F0.0019806882891804903
sI40
F0.0017331022530329288
sI41
F0.0037137905422134194
sI42
F0.0034662045060658577
sI43
F0.0029710324337707352
sI44
F0.0022282743253280515
sI45
F0.0019806882891804903
sI46
F0.0022282743253280515
sI47
F0.0019806882891804903
sI48
F0.0029710324337707352
sI49
F0.0024758603614756128
sI50
F0.0024758603614756128
sI51
F0.0022282743253280515
sI52
F0.0017331022530329288
sI53
F0.002723446397623174
sI54
F0.0014855162168853676
sI55
F0.0019806882891804903
sI56
F0.0014855162168853676
sI57
F0.0014855162168853676
sI58
F0.0017331022530329288
sI59
F0.0012379301807378064
sI60
F0.00099034414459024515
sI61
F0.0014855162168853676
sI62
F0.0012379301807378064
sI63
F0.0017331022530329288
sI64
F0.0017331022530329288
sI65
F0.0012379301807378064
sI66
F0.0019806882891804903
sI67
F0.00074275810844268381
sI68
F0.00099034414459024515
sI69
F0.0017331022530329288
sI70
F0.0012379301807378064
sI71
F0.0012379301807378064
sI72
F0.0012379301807378064
sI73
F0.00074275810844268381
sI74
F0.00074275810844268381
sI8267
F0.00024758603614756129
sI76
F0.0012379301807378064
sI77
F0.00049517207229512257
sI78
F0.0012379301807378064
sI79
F0.00099034414459024515
sI12368
F0.00024758603614756129
sI81
F0.0017331022530329288
sI82
F0.0017331022530329288
sI83
F0.0014855162168853676
sI84
F0.0012379301807378064
sI85
F0.00049517207229512257
sI86
F0.0014855162168853676
sI87
F0.00049517207229512257
sI88
F0.00024758603614756129
sI89
F0.00074275810844268381
sI90
F0.00099034414459024515
sI91
F0.0014855162168853676
sI93
F0.00024758603614756129
sI94
F0.00024758603614756129
sI95
F0.00074275810844268381
sI96
F0.00049517207229512257
sI97
F0.0012379301807378064
sI99
F0.00049517207229512257
sI100
F0.0012379301807378064
sI101
F0.00099034414459024515
sI102
F0.00049517207229512257
sI103
F0.00024758603614756129
sI104
F0.0017331022530329288
sI105
F0.00074275810844268381
sI106
F0.00049517207229512257
sI107
F0.00049517207229512257
sI108
F0.00074275810844268381
sI109
F0.00049517207229512257
sI110
F0.00074275810844268381
sI111
F0.00074275810844268381
sI112
F0.00024758603614756129
sI113
F0.00074275810844268381
sI114
F0.00074275810844268381
sI115
F0.00024758603614756129
sI117
F0.00074275810844268381
sI118
F0.00024758603614756129
sI120
F0.00049517207229512257
sI121
F0.00099034414459024515
sI122
F0.00049517207229512257
sI123
F0.00024758603614756129
sI124
F0.00049517207229512257
sI125
F0.00099034414459024515
sI126
F0.00024758603614756129
sI127
F0.00024758603614756129
sI128
F0.00099034414459024515
sI129
F0.00049517207229512257
sI130
F0.00049517207229512257
sI131
F0.00074275810844268381
sI132
F0.00049517207229512257
sI133
F0.00074275810844268381
sI134
F0.0012379301807378064
sI135
F0.00049517207229512257
sI136
F0.00074275810844268381
sI137
F0.00099034414459024515
sI138
F0.00074275810844268381
sI139
F0.00049517207229512257
sI140
F0.00074275810844268381
sI141
F0.00074275810844268381
sI142
F0.00074275810844268381
sI143
F0.00074275810844268381
sI144
F0.00099034414459024515
sI145
F0.00099034414459024515
sI146
F0.00074275810844268381
sI147
F0.00074275810844268381
sI2196
F0.00024758603614756129
sI149
F0.00024758603614756129
sI150
F0.00024758603614756129
sI151
F0.00049517207229512257
sI152
F0.00049517207229512257
sI153
F0.00049517207229512257
sI154
F0.00099034414459024515
sI155
F0.00074275810844268381
sI156
F0.00024758603614756129
sI157
F0.00024758603614756129
sI159
F0.00024758603614756129
sI160
F0.00074275810844268381
sI161
F0.00049517207229512257
sI162
F0.00024758603614756129
sI163
F0.00074275810844268381
sI164
F0.00049517207229512257
sI8357
F0.00024758603614756129
sI166
F0.00074275810844268381
sI167
F0.00024758603614756129
sI169
F0.00024758603614756129
sI170
F0.00024758603614756129
sI7879
F0.00024758603614756129
sI174
F0.00024758603614756129
sI177
F0.00049517207229512257
sI178
F0.00024758603614756129
sI179
F0.00024758603614756129
sI180
F0.00074275810844268381
sI181
F0.00049517207229512257
sI183
F0.00049517207229512257
sI184
F0.00049517207229512257
sI185
F0.00074275810844268381
sI186
F0.00049517207229512257
sI187
F0.00024758603614756129
sI188
F0.00024758603614756129
sI189
F0.00049517207229512257
sI190
F0.00024758603614756129
sI191
F0.00024758603614756129
sI192
F0.00024758603614756129
sI2080
F0.00024758603614756129
sI195
F0.0012379301807378064
sI197
F0.00024758603614756129
sI198
F0.00049517207229512257
sI199
F0.0012379301807378064
sI201
F0.00024758603614756129
sI202
F0.00049517207229512257
sI203
F0.00024758603614756129
sI204
F0.00024758603614756129
sI205
F0.00024758603614756129
sI207
F0.00049517207229512257
sI208
F0.00049517207229512257
sI209
F0.00024758603614756129
sI212
F0.00074275810844268381
sI2261
F0.00024758603614756129
sI214
F0.00049517207229512257
sI216
F0.00024758603614756129
sI217
F0.00024758603614756129
sI218
F0.00024758603614756129
sI219
F0.0014855162168853676
sI221
F0.00049517207229512257
sI222
F0.00024758603614756129
sI224
F0.00024758603614756129
sI225
F0.00024758603614756129
sI226
F0.00024758603614756129
sI227
F0.00049517207229512257
sI228
F0.00074275810844268381
sI230
F0.00049517207229512257
sI232
F0.00049517207229512257
sI234
F0.00074275810844268381
sI236
F0.00024758603614756129
sI238
F0.00099034414459024515
sI239
F0.00049517207229512257
sI240
F0.00049517207229512257
sI2088
F0.00024758603614756129
sI242
F0.00049517207229512257
sI243
F0.00024758603614756129
sI244
F0.00049517207229512257
sI245
F0.00024758603614756129
sI246
F0.00024758603614756129
sI20728
F0.00024758603614756129
sI249
F0.00024758603614756129
sI250
F0.00024758603614756129
sI16636
F0.00024758603614756129
sI254
F0.00049517207229512257
sI6399
F0.00024758603614756129
sI256
F0.00024758603614756129
sI260
F0.00049517207229512257
sI263
F0.00024758603614756129
sI264
F0.00049517207229512257
sI265
F0.00024758603614756129
sI268
F0.00049517207229512257
sI270
F0.00024758603614756129
sI272
F0.00024758603614756129
sI274
F0.00049517207229512257
sI275
F0.00049517207229512257
sI277
F0.00024758603614756129
sI278
F0.00024758603614756129
sI2055
F0.00024758603614756129
sI281
F0.00024758603614756129
sI12570
F0.00024758603614756129
sI283
F0.00024758603614756129
sI284
F0.00049517207229512257
sI285
F0.00024758603614756129
sI287
F0.00024758603614756129
sI288
F0.00024758603614756129
sI292
F0.00024758603614756129
sI293
F0.00049517207229512257
sI294
F0.00024758603614756129
sI296
F0.00024758603614756129
sI298
F0.00049517207229512257
sI299
F0.00024758603614756129
sI300
F0.00049517207229512257
sI301
F0.00024758603614756129
sI4399
F0.00024758603614756129
sI305
F0.00024758603614756129
sI12594
F0.00024758603614756129
sI2355
F0.00024758603614756129
sI308
F0.00024758603614756129
sI309
F0.00024758603614756129
sI10550
F0.00024758603614756129
sI311
F0.00024758603614756129
sI2100
F0.00024758603614756129
sI314
F0.00024758603614756129
sI319
F0.0012379301807378064
sI2368
F0.00024758603614756129
sI322
F0.00024758603614756129
sI324
F0.00049517207229512257
sI327
F0.00024758603614756129
sI328
F0.00024758603614756129
sI330
F0.00049517207229512257
sI332
F0.00024758603614756129
sI333
F0.00024758603614756129
sI336
F0.00024758603614756129
sI338
F0.00024758603614756129
sI2105
F0.00024758603614756129
sI344
F0.00049517207229512257
sI347
F0.00049517207229512257
sI349
F0.00049517207229512257
sI353
F0.00024758603614756129
sI355
F0.00024758603614756129
sI356
F0.00024758603614756129
sI358
F0.00024758603614756129
sI361
F0.00049517207229512257
sI363
F0.00049517207229512257
sI4461
F0.00024758603614756129
sI366
F0.00049517207229512257
sI29039
F0.00024758603614756129
sI373
F0.00024758603614756129
sI374
F0.00049517207229512257
sI375
F0.00024758603614756129
sI376
F0.00024758603614756129
sI377
F0.00024758603614756129
sI2111
F0.00024758603614756129
sI381
F0.00024758603614756129
sI382
F0.00049517207229512257
sI383
F0.00049517207229512257
sI4160
F0.00024758603614756129
sI388
F0.00024758603614756129
sI390
F0.00024758603614756129
sI394
F0.00024758603614756129
sI397
F0.00024758603614756129
sI398
F0.00024758603614756129
sI403
F0.00024758603614756129
sI16790
F0.00024758603614756129
sI409
F0.00024758603614756129
sI2116
F0.00024758603614756129
sI410
F0.00024758603614756129
sI412
F0.00024758603614756129
sI417
F0.00024758603614756129
sI422
F0.00024758603614756129
sI2471
F0.00024758603614756129
sI425
F0.00024758603614756129
sI426
F0.00049517207229512257
sI427
F0.00024758603614756129
sI428
F0.00024758603614756129
sI430
F0.00024758603614756129
sI431
F0.00024758603614756129
sI433
F0.00024758603614756129
sI436
F0.00049517207229512257
sI437
F0.00024758603614756129
sI438
F0.00024758603614756129
sI2487
F0.00024758603614756129
sI10680
F0.00024758603614756129
sI442
F0.00024758603614756129
sI443
F0.00024758603614756129
sI446
F0.00024758603614756129
sI447
F0.00024758603614756129
sI2496
F0.00024758603614756129
sI450
F0.00024758603614756129
sI75
F0.00099034414459024515
sI455
F0.00024758603614756129
sI457
F0.00024758603614756129
sI459
F0.00049517207229512257
sI4558
F0.00024758603614756129
sI2511
F0.00024758603614756129
sI464
F0.00024758603614756129
sI465
F0.00024758603614756129
sI2517
F0.00024758603614756129
sI471
F0.00024758603614756129
sI474
F0.00049517207229512257
sI475
F0.00049517207229512257
sI476
F0.00049517207229512257
sI80
F0.0012379301807378064
sI486
F0.00024758603614756129
sI487
F0.00049517207229512257
sI488
F0.00024758603614756129
sI489
F0.00049517207229512257
sI490
F0.00049517207229512257
sI8683
F0.00024758603614756129
sI492
F0.00024758603614756129
sI493
F0.00024758603614756129
sI498
F0.00024758603614756129
sI499
F0.00024758603614756129
sI10740
F0.00024758603614756129
sI2549
F0.00024758603614756129
sI509
F0.00024758603614756129
sI510
F0.00049517207229512257
sI512
F0.00024758603614756129
sI4612
F0.00024758603614756129
sI521
F0.00024758603614756129
sI524
F0.00024758603614756129
sI526
F0.00024758603614756129
sI529
F0.00024758603614756129
sI541
F0.00024758603614756129
sI547
F0.00024758603614756129
sI551
F0.00024758603614756129
sI555
F0.00024758603614756129
sI2612
F0.00024758603614756129
sI566
F0.00024758603614756129
sI572
F0.00024758603614756129
sI575
F0.00024758603614756129
sI576
F0.00024758603614756129
sI577
F0.00024758603614756129
sI578
F0.00024758603614756129
sI581
F0.00024758603614756129
sI584
F0.00024758603614756129
sI585
F0.00024758603614756129
sI586
F0.00049517207229512257
sI588
F0.00024758603614756129
sI2638
F0.00024758603614756129
sI593
F0.00024758603614756129
sI596
F0.00024758603614756129
sI597
F0.00024758603614756129
sI598
F0.00024758603614756129
sI600
F0.00024758603614756129
sI12889
F0.00024758603614756129
sI2657
F0.00024758603614756129
sI610
F0.00024758603614756129
sI2660
F0.00024758603614756129
sI613
F0.00024758603614756129
sI2666
F0.00024758603614756129
sI620
F0.00024758603614756129
sI622
F0.00024758603614756129
sI627
F0.00024758603614756129
sI629
F0.00024758603614756129
sI636
F0.00024758603614756129
sI448
F0.00049517207229512257
sI643
F0.00024758603614756129
sI646
F0.00024758603614756129
sI649
F0.00024758603614756129
sI650
F0.00024758603614756129
sI653
F0.00049517207229512257
sI17049
F0.00024758603614756129
sI666
F0.00024758603614756129
sI667
F0.00024758603614756129
sI670
F0.00024758603614756129
sI671
F0.00024758603614756129
sI673
F0.00024758603614756129
sI6829
F0.00024758603614756129
sI686
F0.00024758603614756129
sI687
F0.00024758603614756129
sI700
F0.00024758603614756129
sI701
F0.00024758603614756129
sI2750
F0.00024758603614756129
sI8898
F0.00024758603614756129
sI707
F0.00024758603614756129
sI711
F0.00024758603614756129
sI2760
F0.00024758603614756129
sI714
F0.00024758603614756129
sI718
F0.00024758603614756129
sI462
F0.00024758603614756129
sI726
F0.00024758603614756129
sI53977
F0.00024758603614756129
sI736
F0.00024758603614756129
sI747
F0.00024758603614756129
sI4849
F0.00024758603614756129
sI2804
F0.00024758603614756129
sI760
F0.00024758603614756129
sI21166
F0.00024758603614756129
sI768
F0.00024758603614756129
sI770
F0.00024758603614756129
sI2819
F0.00024758603614756129
sI774
F0.00024758603614756129
sI780
F0.00024758603614756129
sI784
F0.00049517207229512257
sI788
F0.00024758603614756129
sI789
F0.00049517207229512257
sI794
F0.00024758603614756129
sI796
F0.00024758603614756129
sI800
F0.00024758603614756129
sI2850
F0.00024758603614756129
sI803
F0.00024758603614756129
sI805
F0.00024758603614756129
sI807
F0.00049517207229512257
sI811
F0.00024758603614756129
sI813
F0.00024758603614756129
sI819
F0.00049517207229512257
sI824
F0.00024758603614756129
sI825
F0.00024758603614756129
sI2874
F0.00024758603614756129
sI839
F0.00024758603614756129
sI857
F0.00024758603614756129
sI860
F0.00049517207229512257
sI864
F0.00024758603614756129
sI2913
F0.00024758603614756129
sI867
F0.00049517207229512257
sI2193
F0.00024758603614756129
sI21353
F0.00024758603614756129
sI877
F0.00024758603614756129
sI878
F0.00024758603614756129
sI887
F0.00024758603614756129
sI148
F0.00049517207229512257
sI900
F0.00024758603614756129
sI11144
F0.00024758603614756129
sI2485
F0.00024758603614756129
sI906
F0.00024758603614756129
sI911
F0.00024758603614756129
sI7056
F0.00024758603614756129
sI915
F0.00024758603614756129
sI921
F0.00024758603614756129
sI4250
F0.00024758603614756129
sI927
F0.00049517207229512257
sI939
F0.00024758603614756129
sI943
F0.00024758603614756129
sI11188
F0.00024758603614756129
sI950
F0.00024758603614756129
sI8215
F0.00024758603614756129
sI500
F0.00024758603614756129
sI501
F0.00024758603614756129
sI4256
F0.00024758603614756129
sI963
F0.00024758603614756129
sI970
F0.00024758603614756129
sI973
F0.00024758603614756129
sI976
F0.00024758603614756129
sI982
F0.00024758603614756129
sI984
F0.00024758603614756129
sI985
F0.00024758603614756129
sI1871
F0.00024758603614756129
sI990
F0.00024758603614756129
sI993
F0.00024758603614756129
sI997
F0.00024758603614756129
sI1000
F0.00024758603614756129
sI1001
F0.00074275810844268381
sI1002
F0.00024758603614756129
sI14845
F0.00024758603614756129
sI1013
F0.00024758603614756129
sI1016
F0.00024758603614756129
sI3066
F0.00024758603614756129
sI5117
F0.00024758603614756129
sI1024
F0.00024758603614756129
sI1057
F0.00024758603614756129
sI1077
F0.00024758603614756129
sI1081
F0.00024758603614756129
sI2229
F0.00024758603614756129
sI3597
F0.00024758603614756129
sI1113
F0.00024758603614756129
sI1126
F0.00024758603614756129
sI1140
F0.00024758603614756129
sI1142
F0.00024758603614756129
sI1143
F0.00024758603614756129
sI1144
F0.00024758603614756129
sI379
F0.00024758603614756129
sI1151
F0.00024758603614756129
sI3201
F0.00024758603614756129
sI1159
F0.00049517207229512257
sI1161
F0.00024758603614756129
sI2289
F0.00024758603614756129
sI3220
F0.00024758603614756129
sI5280
F0.00024758603614756129
sI17569
F0.00024758603614756129
sI1196
F0.00024758603614756129
sI1205
F0.00024758603614756129
sI3274
F0.00024758603614756129
sI7370
F0.00024758603614756129
sI889
F0.00024758603614756129
sI5348
F0.00024758603614756129
sI1255
F0.00024758603614756129
sI1258
F0.00024758603614756129
sI3311
F0.00024758603614756129
sI21756
F0.00024758603614756129
sI14549
F0.00024758603614756129
sI1290
F0.00024758603614756129
sI1295
F0.00024758603614756129
sI1297
F0.00049517207229512257
sI248
F0.00024758603614756129
sI3363
F0.00024758603614756129
sI1327
F0.00024758603614756129
sI7482
F0.00024758603614756129
sI3400
F0.00024758603614756129
sI13641
F0.00024758603614756129
sI2275
F0.00024758603614756129
sI1252
F0.00024758603614756129
sI1376
F0.00024758603614756129
sI1382
F0.00024758603614756129
sI5480
F0.00024758603614756129
sI1404
F0.00024758603614756129
sI3468
F0.00024758603614756129
sI25999
F0.00024758603614756129
sI4298
F0.00024758603614756129
sI3480
F0.00024758603614756129
sI9628
F0.00024758603614756129
sI1443
F0.00024758603614756129
sI1447
F0.00024758603614756129
sI3512
F0.00024758603614756129
sI3519
F0.00024758603614756129
sI7617
F0.00024758603614756129
sI1474
F0.00024758603614756129
sI5580
F0.00024758603614756129
sI6392
F0.00024758603614756129
sI2192
F0.00024758603614756129
sI3542
F0.00024758603614756129
sI1495
F0.00024758603614756129
sI3549
F0.00024758603614756129
sI1512
F0.00024758603614756129
sI1525
F0.00024758603614756129
sI255
F0.00024758603614756129
sI1538
F0.00024758603614756129
sI27222
F0.00024758603614756129
sI50694
F0.00024758603614756129
sI3594
F0.00024758603614756129
sI5645
F0.00024758603614756129
sI2056
F0.00024758603614756129
sI7724
F0.00024758603614756129
sI1582
F0.00024758603614756129
sI1586
F0.00024758603614756129
sI5683
F0.00024758603614756129
sI3638
F0.00024758603614756129
sI3640
F0.00024758603614756129
sI1599
F0.00024758603614756129
sI1601
F0.00024758603614756129
sI30278
F0.00024758603614756129
sI612
F0.00024758603614756129
sI5725
F0.00024758603614756129
sI1638
F0.00024758603614756129
sI11881
F0.00024758603614756129
sI11886
F0.00024758603614756129
sI1652
F0.00024758603614756129
sI4374
F0.00024758603614756129
sI1679
F0.00024758603614756129
sI280
F0.00024758603614756129
sI9877
F0.00024758603614756129
sI1688
F0.00024758603614756129
sI1691
F0.00024758603614756129
sI3745
F0.00024758603614756129
sI3747
F0.00024758603614756129
sI193
F0.00024758603614756129
sI1726
F0.00024758603614756129
sI1731
F0.00024758603614756129
sI1735
F0.00024758603614756129
sI1737
F0.00024758603614756129
sI3804
F0.00024758603614756129
sI1763
F0.00024758603614756129
sI1423
F0.00024758603614756129
sI3829
F0.00024758603614756129
sI5880
F0.00024758603614756129
sI1786
F0.00024758603614756129
sI1788
F0.00024758603614756129
sI1794
F0.00024758603614756129
sI3844
F0.00024758603614756129
sI7947
F0.00024758603614756129
sI1814
F0.00024758603614756129
sI1837
F0.00024758603614756129
sI2107
F0.00024758603614756129
sI307
F0.00049517207229512257
sI1846
F0.00024758603614756129
sI1847
F0.00024758603614756129
sI1851
F0.00024758603614756129
sI1862
F0.00024758603614756129
sI1868
F0.00024758603614756129
sI2108
F0.00024758603614756129
sI313
F0.00024758603614756129
sI1338
F0.00024758603614756129
sI1899
F0.00024758603614756129
sI6000
F0.00024758603614756129
sI3739
F0.00024758603614756129
sI4008
F0.00024758603614756129
sI1963
F0.00024758603614756129
sI1965
F0.00024758603614756129
sI1966
F0.00024758603614756129
sI16316
F0.00024758603614756129
sI1987
F0.00024758603614756129
sI4323
F0.00024758603614756129
sI4054
F0.00024758603614756129
sI4055
F0.00024758603614756129
sI2008
F0.00024758603614756129
sI4432
F0.00024758603614756129
sI2020
F0.00024758603614756129
sI26050
F0.00024758603614756129
sI2039
F0.00024758603614756129
sI2523
F0.00024758603614756129
sag2
(g3
tRp7
I0
F0.18367346938775511
sI1
F0.087823893602384781
sI2
F0.05916074294886494
sI3
F0.043567988993350147
sI4
F0.038064664067874343
sI5
F0.024764962164641139
sI6
F0.022930520522815866
sI7
F0.020637468470534281
sI8
F0.013987617518917679
sI9
F0.014446227929373997
sI10
F0.015363448750286631
sI11
F0.01031873423526714
sI12
F0.01559275395551479
sI13
F0.010089429030038982
sI14
F0.01238248108232057
sI15
F0.011235955056179775
sI16
F0.008254987388213713
sI17
F0.006649850951616602
sI18
F0.006649850951616602
sI19
F0.0061912405411602848
sI20
F0.0057326301307039666
sI21
F0.006649850951616602
sI22
F0.0073377665673010775
sI23
F0.0061912405411602848
sI24
F0.0087135977986700294
sI25
F0.0068791561568447603
sI26
F0.0055033249254758084
sI27
F0.0041274936941068565
sI28
F0.0052740197202476493
sI29
F0.0059619353359321257
sI30
F0.0043567988993350147
sI31
F0.0032102728731942215
sI32
F0.0036688832836505388
sI33
F0.0045861041045631738
sI34
F0.0027516624627379042
sI35
F0.0057326301307039666
sI36
F0.0025223572575097455
sI37
F0.0036688832836505388
sI38
F0.0016051364365971107
sI39
F0.0036688832836505388
sI40
F0.0029809676679660628
sI41
F0.0016051364365971107
sI42
F0.0025223572575097455
sI43
F0.0025223572575097455
sI44
F0.0022930520522815869
sI45
F0.0027516624627379042
sI46
F0.0029809676679660628
sI47
F0.0022930520522815869
sI48
F0.0043567988993350147
sI49
F0.0029809676679660628
sI50
F0.0020637468470534283
sI51
F0.0022930520522815869
sI52
F0.0029809676679660628
sI53
F0.0036688832836505388
sI54
F0.0018344416418252694
sI55
F0.0022930520522815869
sI2104
F0.00022930520522815867
sI57
F0.0020637468470534283
sI58
F0.0016051364365971107
sI59
F0.0018344416418252694
sI60
F0.0027516624627379042
sI61
F0.0025223572575097455
sI62
F0.0027516624627379042
sI63
F0.0022930520522815869
sI64
F0.0016051364365971107
sI65
F0.0016051364365971107
sI4162
F0.00022930520522815867
sI67
F0.0018344416418252694
sI68
F0.0013758312313689521
sI69
F0.0018344416418252694
sI70
F0.0022930520522815869
sI71
F0.0013758312313689521
sI72
F0.0011465260261407934
sI73
F0.0018344416418252694
sI74
F0.0016051364365971107
sI10315
F0.00022930520522815867
sI76
F0.0011465260261407934
sI77
F0.0011465260261407934
sI78
F0.0020637468470534283
sI79
F0.0016051364365971107
sI80
F0.00045861041045631735
sI81
F0.00022930520522815867
sI82
F0.0011465260261407934
sI83
F0.00091722082091263469
sI84
F0.00045861041045631735
sI85
F0.0011465260261407934
sI86
F0.0011465260261407934
sI87
F0.0016051364365971107
sI88
F0.0013758312313689521
sI89
F0.00091722082091263469
sI91
F0.0011465260261407934
sI92
F0.00091722082091263469
sI93
F0.00045861041045631735
sI94
F0.00022930520522815867
sI95
F0.00068791561568447605
sI96
F0.0016051364365971107
sI97
F0.0011465260261407934
sI98
F0.00091722082091263469
sI99
F0.00022930520522815867
sI100
F0.0013758312313689521
sI101
F0.0011465260261407934
sI102
F0.0016051364365971107
sI103
F0.00022930520522815867
sI104
F0.00068791561568447605
sI106
F0.00022930520522815867
sI107
F0.00091722082091263469
sI108
F0.00022930520522815867
sI109
F0.0011465260261407934
sI110
F0.00045861041045631735
sI111
F0.0011465260261407934
sI112
F0.00045861041045631735
sI113
F0.00068791561568447605
sI114
F0.0011465260261407934
sI115
F0.00045861041045631735
sI116
F0.00091722082091263469
sI117
F0.00022930520522815867
sI118
F0.00045861041045631735
sI119
F0.00068791561568447605
sI120
F0.00068791561568447605
sI121
F0.0016051364365971107
sI122
F0.00068791561568447605
sI123
F0.0011465260261407934
sI124
F0.00045861041045631735
sI125
F0.0011465260261407934
sI126
F0.00068791561568447605
sI127
F0.00022930520522815867
sI128
F0.00068791561568447605
sI129
F0.00045861041045631735
sI130
F0.00068791561568447605
sI131
F0.0011465260261407934
sI132
F0.00068791561568447605
sI133
F0.0011465260261407934
sI134
F0.00091722082091263469
sI135
F0.0011465260261407934
sI136
F0.00045861041045631735
sI137
F0.00045861041045631735
sI138
F0.00045861041045631735
sI139
F0.0011465260261407934
sI140
F0.0018344416418252694
sI141
F0.0013758312313689521
sI142
F0.00068791561568447605
sI143
F0.00045861041045631735
sI144
F0.00068791561568447605
sI145
F0.00022930520522815867
sI146
F0.00022930520522815867
sI147
F0.00045861041045631735
sI148
F0.00045861041045631735
sI149
F0.00068791561568447605
sI150
F0.0013758312313689521
sI151
F0.00022930520522815867
sI152
F0.0011465260261407934
sI153
F0.00068791561568447605
sI154
F0.00045861041045631735
sI155
F0.00022930520522815867
sI156
F0.00091722082091263469
sI157
F0.00022930520522815867
sI158
F0.00045861041045631735
sI160
F0.0011465260261407934
sI161
F0.00068791561568447605
sI162
F0.00045861041045631735
sI163
F0.00045861041045631735
sI164
F0.00068791561568447605
sI165
F0.00068791561568447605
sI166
F0.00022930520522815867
sI167
F0.00022930520522815867
sI168
F0.00022930520522815867
sI8362
F0.00022930520522815867
sI171
F0.00068791561568447605
sI172
F0.00022930520522815867
sI173
F0.00022930520522815867
sI174
F0.00022930520522815867
sI175
F0.00045861041045631735
sI177
F0.00045861041045631735
sI178
F0.00022930520522815867
sI179
F0.00022930520522815867
sI180
F0.00045861041045631735
sI181
F0.00045861041045631735
sI182
F0.00022930520522815867
sI183
F0.00022930520522815867
sI184
F0.00045861041045631735
sI185
F0.00091722082091263469
sI187
F0.00068791561568447605
sI188
F0.00045861041045631735
sI191
F0.00045861041045631735
sI192
F0.00045861041045631735
sI194
F0.00022930520522815867
sI195
F0.00068791561568447605
sI196
F0.0011465260261407934
sI197
F0.00022930520522815867
sI199
F0.00091722082091263469
sI200
F0.00045861041045631735
sI201
F0.0011465260261407934
sI202
F0.00068791561568447605
sI204
F0.00022930520522815867
sI205
F0.00068791561568447605
sI208
F0.00022930520522815867
sI209
F0.00022930520522815867
sI210
F0.00022930520522815867
sI211
F0.00091722082091263469
sI212
F0.00022930520522815867
sI213
F0.00022930520522815867
sI214
F0.0013758312313689521
sI215
F0.00045861041045631735
sI216
F0.0011465260261407934
sI217
F0.00068791561568447605
sI218
F0.00091722082091263469
sI219
F0.00022930520522815867
sI220
F0.00022930520522815867
sI221
F0.00022930520522815867
sI222
F0.00068791561568447605
sI223
F0.00068791561568447605
sI224
F0.00022930520522815867
sI225
F0.00022930520522815867
sI226
F0.00022930520522815867
sI227
F0.00045861041045631735
sI228
F0.00045861041045631735
sI229
F0.00068791561568447605
sI230
F0.00022930520522815867
sI233
F0.00022930520522815867
sI234
F0.00022930520522815867
sI235
F0.00022930520522815867
sI236
F0.00022930520522815867
sI238
F0.00022930520522815867
sI239
F0.00045861041045631735
sI4336
F0.00022930520522815867
sI241
F0.00022930520522815867
sI243
F0.00022930520522815867
sI4340
F0.00022930520522815867
sI246
F0.00022930520522815867
sI248
F0.00045861041045631735
sI249
F0.00022930520522815867
sI250
F0.00022930520522815867
sI252
F0.00022930520522815867
sI253
F0.00022930520522815867
sI254
F0.00022930520522815867
sI258
F0.00022930520522815867
sI259
F0.00022930520522815867
sI260
F0.00045861041045631735
sI261
F0.00045861041045631735
sI263
F0.00045861041045631735
sI266
F0.00045861041045631735
sI267
F0.00022930520522815867
sI268
F0.00045861041045631735
sI269
F0.00022930520522815867
sI270
F0.00068791561568447605
sI273
F0.00022930520522815867
sI274
F0.00068791561568447605
sI275
F0.0011465260261407934
sI276
F0.00068791561568447605
sI277
F0.00022930520522815867
sI279
F0.00022930520522815867
sI280
F0.00022930520522815867
sI281
F0.00045861041045631735
sI282
F0.00045861041045631735
sI283
F0.00045861041045631735
sI285
F0.00022930520522815867
sI288
F0.00045861041045631735
sI291
F0.00022930520522815867
sI294
F0.00022930520522815867
sI295
F0.00022930520522815867
sI298
F0.00022930520522815867
sI299
F0.00022930520522815867
sI302
F0.00068791561568447605
sI304
F0.00045861041045631735
sI305
F0.00022930520522815867
sI12339
F0.00022930520522815867
sI308
F0.00022930520522815867
sI309
F0.00022930520522815867
sI310
F0.00022930520522815867
sI313
F0.00022930520522815867
sI314
F0.00045861041045631735
sI315
F0.00022930520522815867
sI4414
F0.00022930520522815867
sI2367
F0.00022930520522815867
sI2368
F0.00022930520522815867
sI321
F0.00045861041045631735
sI323
F0.00022930520522815867
sI325
F0.00045861041045631735
sI326
F0.00022930520522815867
sI327
F0.00022930520522815867
sI4424
F0.00022930520522815867
sI8523
F0.00022930520522815867
sI332
F0.00022930520522815867
sI334
F0.00022930520522815867
sI56
F0.0018344416418252694
sI339
F0.00045861041045631735
sI341
F0.00022930520522815867
sI343
F0.00022930520522815867
sI344
F0.00045861041045631735
sI4441
F0.00022930520522815867
sI347
F0.00045861041045631735
sI10298
F0.00022930520522815867
sI350
F0.00022930520522815867
sI352
F0.00045861041045631735
sI354
F0.00022930520522815867
sI362
F0.00045861041045631735
sI363
F0.00045861041045631735
sI366
F0.00022930520522815867
sI368
F0.00045861041045631735
sI371
F0.00022930520522815867
sI372
F0.00022930520522815867
sI373
F0.00022930520522815867
sI374
F0.00091722082091263469
sI379
F0.00022930520522815867
sI380
F0.00022930520522815867
sI4477
F0.00022930520522815867
sI385
F0.00022930520522815867
sI388
F0.00022930520522815867
sI391
F0.00022930520522815867
sI392
F0.00022930520522815867
sI393
F0.00022930520522815867
sI397
F0.00045861041045631735
sI399
F0.00091722082091263469
sI401
F0.00022930520522815867
sI402
F0.00022930520522815867
sI406
F0.00022930520522815867
sI407
F0.00022930520522815867
sI408
F0.00022930520522815867
sI409
F0.00045861041045631735
sI411
F0.00022930520522815867
sI412
F0.00068791561568447605
sI2462
F0.00022930520522815867
sI415
F0.00022930520522815867
sI416
F0.00068791561568447605
sI417
F0.00022930520522815867
sI418
F0.00022930520522815867
sI419
F0.00022930520522815867
sI420
F0.00045861041045631735
sI422
F0.00045861041045631735
sI423
F0.00068791561568447605
sI426
F0.00045861041045631735
sI427
F0.00068791561568447605
sI428
F0.00045861041045631735
sI431
F0.00022930520522815867
sI434
F0.00068791561568447605
sI435
F0.00022930520522815867
sI437
F0.00022930520522815867
sI438
F0.00022930520522815867
sI439
F0.00022930520522815867
sI440
F0.00022930520522815867
sI442
F0.00022930520522815867
sI443
F0.00045861041045631735
sI444
F0.00022930520522815867
sI445
F0.00022930520522815867
sI446
F0.00022930520522815867
sI447
F0.00022930520522815867
sI448
F0.00022930520522815867
sI75
F0.00068791561568447605
sI453
F0.00022930520522815867
sI455
F0.00022930520522815867
sI457
F0.00022930520522815867
sI458
F0.00022930520522815867
sI459
F0.00022930520522815867
sI460
F0.00022930520522815867
sI2466
F0.00022930520522815867
sI462
F0.00022930520522815867
sI463
F0.00022930520522815867
sI464
F0.00045861041045631735
sI6563
F0.00022930520522815867
sI472
F0.00022930520522815867
sI475
F0.00022930520522815867
sI479
F0.00022930520522815867
sI480
F0.00022930520522815867
sI483
F0.00045861041045631735
sI486
F0.00022930520522815867
sI487
F0.00022930520522815867
sI490
F0.00022930520522815867
sI491
F0.00022930520522815867
sI493
F0.00022930520522815867
sI496
F0.00022930520522815867
sI500
F0.00022930520522815867
sI501
F0.00022930520522815867
sI2550
F0.00022930520522815867
sI508
F0.00045861041045631735
sI509
F0.00022930520522815867
sI512
F0.00022930520522815867
sI516
F0.00022930520522815867
sI517
F0.00045861041045631735
sI526
F0.00045861041045631735
sI530
F0.00022930520522815867
sI535
F0.00022930520522815867
sI540
F0.00022930520522815867
sI4641
F0.00022930520522815867
sI546
F0.00022930520522815867
sI548
F0.00022930520522815867
sI550
F0.00022930520522815867
sI4188
F0.00022930520522815867
sI2605
F0.00022930520522815867
sI559
F0.00022930520522815867
sI560
F0.00045861041045631735
sI561
F0.00045861041045631735
sI562
F0.00022930520522815867
sI564
F0.00045861041045631735
sI567
F0.00022930520522815867
sI570
F0.00045861041045631735
sI571
F0.00022930520522815867
sI572
F0.00022930520522815867
sI575
F0.00022930520522815867
sI578
F0.00022930520522815867
sI2630
F0.00022930520522815867
sI584
F0.00022930520522815867
sI588
F0.00022930520522815867
sI589
F0.00022930520522815867
sI590
F0.00022930520522815867
sI2640
F0.00022930520522815867
sI593
F0.00022930520522815867
sI596
F0.00022930520522815867
sI599
F0.00022930520522815867
sI600
F0.00022930520522815867
sI604
F0.00022930520522815867
sI611
F0.00022930520522815867
sI616
F0.00022930520522815867
sI617
F0.00022930520522815867
sI618
F0.00045861041045631735
sI622
F0.00045861041045631735
sI625
F0.00022930520522815867
sI626
F0.00022930520522815867
sI627
F0.00022930520522815867
sI345
F0.00091722082091263469
sI639
F0.00022930520522815867
sI6788
F0.00022930520522815867
sI646
F0.00022930520522815867
sI654
F0.00022930520522815867
sI451
F0.00022930520522815867
sI660
F0.00022930520522815867
sI662
F0.00022930520522815867
sI6811
F0.00022930520522815867
sI671
F0.00022930520522815867
sI672
F0.00022930520522815867
sI678
F0.00022930520522815867
sI684
F0.00022930520522815867
sI2737
F0.00045861041045631735
sI697
F0.00022930520522815867
sI699
F0.00022930520522815867
sI705
F0.00022930520522815867
sI707
F0.00045861041045631735
sI709
F0.00022930520522815867
sI8903
F0.00022930520522815867
sI10954
F0.00022930520522815867
sI724
F0.00022930520522815867
sI2778
F0.00022930520522815867
sI731
F0.00022930520522815867
sI734
F0.00045861041045631735
sI735
F0.00022930520522815867
sI739
F0.00022930520522815867
sI2795
F0.00022930520522815867
sI748
F0.00022930520522815867
sI752
F0.00022930520522815867
sI2802
F0.00022930520522815867
sI467
F0.00022930520522815867
sI2804
F0.00022930520522815867
sI23287
F0.00022930520522815867
sI768
F0.00022930520522815867
sI770
F0.00022930520522815867
sI2824
F0.00022930520522815867
sI1155
F0.00022930520522815867
sI794
F0.00022930520522815867
sI801
F0.00022930520522815867
sI802
F0.00022930520522815867
sI2852
F0.00022930520522815867
sI805
F0.00022930520522815867
sI810
F0.00022930520522815867
sI817
F0.00022930520522815867
sI4914
F0.00022930520522815867
sI825
F0.00022930520522815867
sI827
F0.00022930520522815867
sI832
F0.00022930520522815867
sI834
F0.00022930520522815867
sI6985
F0.00022930520522815867
sI846
F0.00022930520522815867
sI848
F0.00022930520522815867
sI849
F0.00022930520522815867
sI852
F0.00022930520522815867
sI2906
F0.00022930520522815867
sI870
F0.00022930520522815867
sI871
F0.00045861041045631735
sI711
F0.00022930520522815867
sI1734
F0.00022930520522815867
sI882
F0.00022930520522815867
sI2195
F0.00022930520522815867
sI895
F0.00022930520522815867
sI897
F0.00022930520522815867
sI4995
F0.00022930520522815867
sI909
F0.00022930520522815867
sI915
F0.00022930520522815867
sI922
F0.00022930520522815867
sI925
F0.00045861041045631735
sI5029
F0.00022930520522815867
sI1522
F0.00022930520522815867
sI953
F0.00022930520522815867
sI959
F0.00022930520522815867
sI961
F0.00022930520522815867
sI2146
F0.00022930520522815867
sI7116
F0.00022930520522815867
sI978
F0.00022930520522815867
sI5075
F0.00022930520522815867
sI984
F0.00022930520522815867
sI19424
F0.00022930520522815867
sI1002
F0.00022930520522815867
sI3054
F0.00022930520522815867
sI3059
F0.00022930520522815867
sI1012
F0.00022930520522815867
sI170
F0.00045861041045631735
sI1028
F0.00022930520522815867
sI1036
F0.00022930520522815867
sI24994
F0.00022930520522815867
sI42000
F0.00022930520522815867
sI1057
F0.00022930520522815867
sI2225
F0.00022930520522815867
sI10333
F0.00022930520522815867
sI1079
F0.00022930520522815867
sI1084
F0.00022930520522815867
sI1099
F0.00022930520522815867
sI1110
F0.00022930520522815867
sI2233
F0.00022930520522815867
sI3162
F0.00022930520522815867
sI1127
F0.00022930520522815867
sI1131
F0.00022930520522815867
sI1132
F0.00022930520522815867
sI1145
F0.00022930520522815867
sI9347
F0.00022930520522815867
sI1157
F0.00022930520522815867
sI1159
F0.00022930520522815867
sI5257
F0.00022930520522815867
sI878
F0.00045861041045631735
sI1176
F0.00022930520522815867
sI1179
F0.00022930520522815867
sI1181
F0.00022930520522815867
sI3235
F0.00022930520522815867
sI1199
F0.00022930520522815867
sI1209
F0.00022930520522815867
sI1222
F0.00022930520522815867
sI1226
F0.00022930520522815867
sI1227
F0.00022930520522815867
sI1228
F0.00022930520522815867
sI1235
F0.00022930520522815867
sI1248
F0.00022930520522815867
sI3312
F0.00022930520522815867
sI3314
F0.00045861041045631735
sI1267
F0.00022930520522815867
sI1268
F0.00022930520522815867
sI7416
F0.00022930520522815867
sI1275
F0.00022930520522815867
sI1288
F0.00022930520522815867
sI1295
F0.00022930520522815867
sI1306
F0.00022930520522815867
sI1313
F0.00022930520522815867
sI1315
F0.00022930520522815867
sI2268
F0.00022930520522815867
sI1325
F0.00022930520522815867
sI3375
F0.00022930520522815867
sI1343
F0.00022930520522815867
sI5344
F0.00022930520522815867
sI318
F0.00022930520522815867
sI1376
F0.00022930520522815867
sI1383
F0.00022930520522815867
sI1399
F0.00022930520522815867
sI1403
F0.00022930520522815867
sI1419
F0.00022930520522815867
sI1421
F0.00022930520522815867
sI3479
F0.00022930520522815867
sI1433
F0.00022930520522815867
sI3485
F0.00022930520522815867
sI9631
F0.00022930520522815867
sI1443
F0.00022930520522815867
sI582
F0.00022930520522815867
sI1449
F0.00022930520522815867
sI3498
F0.00022930520522815867
sI1452
F0.00022930520522815867
sI1459
F0.00022930520522815867
sI244
F0.00022930520522815867
sI5587
F0.00022930520522815867
sI17881
F0.00022930520522815867
sI1507
F0.00022930520522815867
sI1514
F0.00022930520522815867
sI1518
F0.00022930520522815867
sI5618
F0.00022930520522815867
sI5620
F0.00022930520522815867
sI7700
F0.00022930520522815867
sI1559
F0.00022930520522815867
sI1560
F0.00022930520522815867
sI1578
F0.00022930520522815867
sI1579
F0.00022930520522815867
sI1585
F0.00022930520522815867
sI1586
F0.00022930520522815867
sI1596
F0.00022930520522815867
sI12465
F0.00022930520522815867
sI1612
F0.00022930520522815867
sI2152
F0.00022930520522815867
sI7796
F0.00022930520522815867
sI1671
F0.00022930520522815867
sI38536
F0.00022930520522815867
sI1675
F0.00022930520522815867
sI22159
F0.00022930520522815867
sI9885
F0.00022930520522815867
sI3752
F0.00022930520522815867
sI3765
F0.00022930520522815867
sI1719
F0.00022930520522815867
sI1720
F0.00022930520522815867
sI6945
F0.00022930520522815867
sI14022
F0.00022930520522815867
sI972
F0.00045861041045631735
sI1745
F0.00022930520522815867
sI1747
F0.00022930520522815867
sI7923
F0.00022930520522815867
sI1782
F0.00022930520522815867
sI14077
F0.00022930520522815867
sI1795
F0.00022930520522815867
sI1799
F0.00022930520522815867
sI1826
F0.00022930520522815867
sI12069
F0.00022930520522815867
sI1672
F0.00022930520522815867
sI307
F0.00022930520522815867
sI1868
F0.00022930520522815867
sI1900
F0.00022930520522815867
sI1902
F0.00022930520522815867
sI14197
F0.00022930520522815867
sI319
F0.00022930520522815867
sI1916
F0.00022930520522815867
sI1919
F0.00022930520522815867
sI1923
F0.00022930520522815867
sI1925
F0.00022930520522815867
sI1932
F0.00022930520522815867
sI1937
F0.00022930520522815867
sI328
F0.00022930520522815867
sI1980
F0.00022930520522815867
sI66
F0.0022930520522815869
sI1999
F0.00022930520522815867
sI2004
F0.00022930520522815867
sI2006
F0.00022930520522815867
sI4089
F0.00022930520522815867
sI4061
F0.00022930520522815867
sI4065
F0.00022930520522815867
sI2019
F0.00022930520522815867
sI2027
F0.00022930520522815867
sI8185
F0.00022930520522815867
sI2045
F0.00022930520522815867
sa.