(lp1
ccollections
defaultdict
p2
(c__builtin__
float
p3
tRp4
I0
F0.20542768807969769
sI1
F0.096015115080728269
sI2
F0.061490896599106837
sI3
F0.043971143936791482
sI4
F0.036585365853658534
sI5
F0.025764342150463759
sI6
F0.023703194778426657
sI7
F0.02095499828237719
sI8
F0.014599793885262797
sI9
F0.017176228100309172
sI10
F0.018550326348333906
sI11
F0.011679835108210237
sI12
F0.014428031604259704
sI13
F0.010477499141188595
sI14
F0.011164548265200962
sI15
F0.011164548265200962
sI16
F0.0085881140501545862
sI17
F0.0070422535211267607
sI18
F0.0066987289591205774
sI19
F0.006355204397114394
sI20
F0.0061834421161113019
sI21
F0.0065269666781174853
sI22
F0.006355204397114394
sI23
F0.0060116798351082098
sI24
F0.0091034008931638617
sI25
F0.0066987289591205774
sI26
F0.0042940570250772931
sI27
F0.0046375815870834764
sI28
F0.0058399175541051186
sI29
F0.0051528684300927519
sI30
F0.0042940570250772931
sI31
F0.003091721058055651
sI32
F0.003091721058055651
sI33
F0.0039505324630711098
sI34
F0.0027481964960494676
sI35
F0.0049811061490896598
sI36
F0.0024046719340432843
sI37
F0.0032634833390587426
sI38
F0.0022329096530401922
sI39
F0.0032634833390587426
sI40
F0.0025764342150463759
sI41
F0.0017176228100309172
sI42
F0.0022329096530401922
sI43
F0.0024046719340432843
sI44
F0.0018893850910340088
sI45
F0.0025764342150463759
sI46
F0.0029199587770525593
sI47
F0.0018893850910340088
sI48
F0.003607007901064926
sI49
F0.0027481964960494676
sI50
F0.0020611473720371005
sI51
F0.0020611473720371005
sI52
F0.0020611473720371005
sI53
F0.0027481964960494676
sI54
F0.0015458605290278255
sI55
F0.0022329096530401922
sI56
F0.0018893850910340088
sI57
F0.0018893850910340088
sI58
F0.0012023359670216421
sI59
F0.0018893850910340088
sI60
F0.0025764342150463759
sI61
F0.0020611473720371005
sI62
F0.0020611473720371005
sI63
F0.0020611473720371005
sI64
F0.0012023359670216421
sI65
F0.0012023359670216421
sI4162
F0.00017176228100309173
sI67
F0.0017176228100309172
sI68
F0.0010305736860185502
sI69
F0.0017176228100309172
sI70
F0.0018893850910340088
sI71
F0.0013740982480247338
sI72
F0.00085881140501545858
sI73
F0.0013740982480247338
sI74
F0.0015458605290278255
sI10315
F0.00017176228100309173
sI76
F0.0012023359670216421
sI77
F0.0010305736860185502
sI78
F0.0015458605290278255
sI79
F0.0012023359670216421
sI80
F0.00034352456200618345
sI81
F0.00051528684300927512
sI82
F0.00085881140501545858
sI83
F0.00068704912401236691
sI84
F0.00017176228100309173
sI85
F0.00085881140501545858
sI86
F0.00085881140501545858
sI87
F0.0012023359670216421
sI88
F0.0012023359670216421
sI89
F0.00068704912401236691
sI90
F0.00017176228100309173
sI91
F0.00068704912401236691
sI92
F0.00085881140501545858
sI93
F0.00051528684300927512
sI94
F0.00017176228100309173
sI95
F0.00068704912401236691
sI96
F0.0012023359670216421
sI97
F0.0010305736860185502
sI98
F0.00068704912401236691
sI99
F0.00017176228100309173
sI100
F0.00085881140501545858
sI101
F0.00085881140501545858
sI102
F0.0013740982480247338
sI103
F0.00034352456200618345
sI104
F0.00051528684300927512
sI105
F0.00034352456200618345
sI106
F0.00017176228100309173
sI107
F0.00068704912401236691
sI108
F0.00034352456200618345
sI109
F0.00085881140501545858
sI110
F0.00068704912401236691
sI111
F0.0010305736860185502
sI112
F0.00034352456200618345
sI113
F0.00051528684300927512
sI114
F0.00085881140501545858
sI115
F0.00034352456200618345
sI116
F0.00085881140501545858
sI117
F0.00017176228100309173
sI118
F0.00068704912401236691
sI119
F0.0012023359670216421
sI120
F0.00068704912401236691
sI121
F0.0013740982480247338
sI122
F0.00051528684300927512
sI123
F0.0010305736860185502
sI124
F0.00034352456200618345
sI125
F0.0010305736860185502
sI126
F0.0010305736860185502
sI127
F0.00051528684300927512
sI128
F0.00068704912401236691
sI129
F0.00051528684300927512
sI130
F0.00051528684300927512
sI131
F0.00085881140501545858
sI132
F0.00051528684300927512
sI133
F0.0010305736860185502
sI134
F0.00068704912401236691
sI135
F0.00085881140501545858
sI136
F0.00034352456200618345
sI137
F0.00034352456200618345
sI138
F0.00034352456200618345
sI139
F0.00085881140501545858
sI140
F0.0013740982480247338
sI141
F0.0012023359670216421
sI142
F0.00085881140501545858
sI143
F0.00034352456200618345
sI144
F0.00051528684300927512
sI145
F0.00017176228100309173
sI146
F0.00017176228100309173
sI147
F0.00034352456200618345
sI148
F0.00051528684300927512
sI149
F0.00051528684300927512
sI150
F0.0010305736860185502
sI151
F0.00034352456200618345
sI152
F0.00085881140501545858
sI153
F0.00068704912401236691
sI154
F0.00034352456200618345
sI155
F0.00051528684300927512
sI156
F0.00085881140501545858
sI157
F0.00017176228100309173
sI158
F0.00034352456200618345
sI709
F0.00017176228100309173
sI160
F0.00085881140501545858
sI161
F0.00068704912401236691
sI162
F0.00034352456200618345
sI163
F0.00034352456200618345
sI164
F0.00051528684300927512
sI165
F0.00051528684300927512
sI166
F0.00017176228100309173
sI167
F0.00017176228100309173
sI168
F0.00051528684300927512
sI8362
F0.00017176228100309173
sI171
F0.00068704912401236691
sI172
F0.00017176228100309173
sI173
F0.00034352456200618345
sI174
F0.00017176228100309173
sI175
F0.00034352456200618345
sI177
F0.00051528684300927512
sI178
F0.00017176228100309173
sI179
F0.00034352456200618345
sI180
F0.00034352456200618345
sI181
F0.00068704912401236691
sI182
F0.00034352456200618345
sI183
F0.00034352456200618345
sI184
F0.00017176228100309173
sI185
F0.00068704912401236691
sI186
F0.00017176228100309173
sI187
F0.00034352456200618345
sI188
F0.00034352456200618345
sI190
F0.00017176228100309173
sI191
F0.00051528684300927512
sI192
F0.00051528684300927512
sI193
F0.00017176228100309173
sI195
F0.00068704912401236691
sI196
F0.0010305736860185502
sI197
F0.00017176228100309173
sI199
F0.00085881140501545858
sI200
F0.00051528684300927512
sI201
F0.0010305736860185502
sI202
F0.00051528684300927512
sI204
F0.00017176228100309173
sI205
F0.00051528684300927512
sI208
F0.00017176228100309173
sI209
F0.00017176228100309173
sI210
F0.00017176228100309173
sI211
F0.00085881140501545858
sI212
F0.00017176228100309173
sI213
F0.00017176228100309173
sI214
F0.00085881140501545858
sI215
F0.00068704912401236691
sI216
F0.00085881140501545858
sI217
F0.00068704912401236691
sI218
F0.00068704912401236691
sI219
F0.00017176228100309173
sI220
F0.00034352456200618345
sI221
F0.00017176228100309173
sI222
F0.00051528684300927512
sI223
F0.00051528684300927512
sI224
F0.00017176228100309173
sI225
F0.00017176228100309173
sI226
F0.00017176228100309173
sI227
F0.00034352456200618345
sI228
F0.00034352456200618345
sI229
F0.00051528684300927512
sI230
F0.00017176228100309173
sI234
F0.00017176228100309173
sI235
F0.00017176228100309173
sI236
F0.00017176228100309173
sI238
F0.00034352456200618345
sI239
F0.00034352456200618345
sI4336
F0.00017176228100309173
sI241
F0.00034352456200618345
sI243
F0.00034352456200618345
sI4340
F0.00017176228100309173
sI246
F0.00017176228100309173
sI248
F0.00017176228100309173
sI249
F0.00017176228100309173
sI250
F0.00017176228100309173
sI252
F0.00017176228100309173
sI253
F0.00017176228100309173
sI254
F0.00017176228100309173
sI258
F0.00017176228100309173
sI259
F0.00034352456200618345
sI260
F0.00017176228100309173
sI261
F0.00034352456200618345
sI263
F0.00034352456200618345
sI266
F0.00051528684300927512
sI267
F0.00017176228100309173
sI268
F0.00051528684300927512
sI270
F0.00051528684300927512
sI272
F0.00017176228100309173
sI273
F0.00017176228100309173
sI274
F0.00051528684300927512
sI275
F0.00085881140501545858
sI276
F0.00051528684300927512
sI277
F0.00017176228100309173
sI279
F0.00017176228100309173
sI280
F0.00034352456200618345
sI281
F0.00034352456200618345
sI282
F0.00051528684300927512
sI283
F0.00034352456200618345
sI285
F0.00017176228100309173
sI288
F0.00034352456200618345
sI290
F0.00017176228100309173
sI291
F0.00017176228100309173
sI293
F0.00017176228100309173
sI294
F0.00017176228100309173
sI295
F0.00017176228100309173
sI298
F0.00017176228100309173
sI299
F0.00017176228100309173
sI302
F0.00051528684300927512
sI304
F0.00034352456200618345
sI305
F0.00017176228100309173
sI306
F0.00017176228100309173
sI12339
F0.00017176228100309173
sI308
F0.00017176228100309173
sI309
F0.00017176228100309173
sI310
F0.00017176228100309173
sI2360
F0.00017176228100309173
sI313
F0.00017176228100309173
sI314
F0.00034352456200618345
sI315
F0.00017176228100309173
sI4414
F0.00017176228100309173
sI2367
F0.00017176228100309173
sI2368
F0.00017176228100309173
sI321
F0.00034352456200618345
sI323
F0.00017176228100309173
sI325
F0.00034352456200618345
sI326
F0.00017176228100309173
sI327
F0.00017176228100309173
sI4424
F0.00017176228100309173
sI329
F0.00051528684300927512
sI330
F0.00017176228100309173
sI8523
F0.00017176228100309173
sI332
F0.00017176228100309173
sI334
F0.00034352456200618345
sI684
F0.00017176228100309173
sI2104
F0.00017176228100309173
sI339
F0.00034352456200618345
sI341
F0.00017176228100309173
sI343
F0.00017176228100309173
sI344
F0.00034352456200618345
sI4441
F0.00017176228100309173
sI347
F0.00034352456200618345
sI349
F0.00017176228100309173
sI350
F0.00017176228100309173
sI352
F0.00034352456200618345
sI354
F0.00017176228100309173
sI357
F0.00017176228100309173
sI362
F0.00051528684300927512
sI363
F0.00034352456200618345
sI366
F0.00017176228100309173
sI368
F0.00034352456200618345
sI6514
F0.00017176228100309173
sI371
F0.00017176228100309173
sI372
F0.00034352456200618345
sI373
F0.00017176228100309173
sI374
F0.00068704912401236691
sI2424
F0.00017176228100309173
sI379
F0.00017176228100309173
sI380
F0.00017176228100309173
sI4477
F0.00017176228100309173
sI383
F0.00017176228100309173
sI385
F0.00017176228100309173
sI388
F0.00034352456200618345
sI391
F0.00017176228100309173
sI392
F0.00017176228100309173
sI393
F0.00017176228100309173
sI397
F0.00034352456200618345
sI399
F0.00051528684300927512
sI401
F0.00017176228100309173
sI402
F0.00017176228100309173
sI22586
F0.00017176228100309173
sI406
F0.00017176228100309173
sI407
F0.00017176228100309173
sI408
F0.00017176228100309173
sI409
F0.00034352456200618345
sI411
F0.00017176228100309173
sI412
F0.00051528684300927512
sI2461
F0.00017176228100309173
sI2462
F0.00017176228100309173
sI415
F0.00017176228100309173
sI416
F0.00051528684300927512
sI417
F0.00017176228100309173
sI418
F0.00017176228100309173
sI6563
F0.00017176228100309173
sI420
F0.00034352456200618345
sI422
F0.00034352456200618345
sI423
F0.00051528684300927512
sI426
F0.00034352456200618345
sI427
F0.00051528684300927512
sI428
F0.00051528684300927512
sI413
F0.00017176228100309173
sI434
F0.00051528684300927512
sI435
F0.00017176228100309173
sI437
F0.00017176228100309173
sI438
F0.00017176228100309173
sI439
F0.00017176228100309173
sI440
F0.00017176228100309173
sI442
F0.00017176228100309173
sI443
F0.00051528684300927512
sI444
F0.00017176228100309173
sI445
F0.00017176228100309173
sI446
F0.00017176228100309173
sI448
F0.00017176228100309173
sI75
F0.00068704912401236691
sI453
F0.00017176228100309173
sI455
F0.00017176228100309173
sI457
F0.00017176228100309173
sI458
F0.00017176228100309173
sI459
F0.00017176228100309173
sI460
F0.00017176228100309173
sI2466
F0.00017176228100309173
sI462
F0.00034352456200618345
sI463
F0.00017176228100309173
sI464
F0.00034352456200618345
sI419
F0.00017176228100309173
sI469
F0.00017176228100309173
sI472
F0.00017176228100309173
sI475
F0.00017176228100309173
sI478
F0.00017176228100309173
sI479
F0.00017176228100309173
sI480
F0.00017176228100309173
sI483
F0.00034352456200618345
sI8677
F0.00017176228100309173
sI486
F0.00017176228100309173
sI487
F0.00017176228100309173
sI488
F0.00017176228100309173
sI490
F0.00017176228100309173
sI491
F0.00017176228100309173
sI493
F0.00017176228100309173
sI496
F0.00017176228100309173
sI499
F0.00017176228100309173
sI500
F0.00017176228100309173
sI501
F0.00017176228100309173
sI2550
F0.00017176228100309173
sI508
F0.00034352456200618345
sI509
F0.00017176228100309173
sI512
F0.00017176228100309173
sI513
F0.00017176228100309173
sI516
F0.00017176228100309173
sI517
F0.00034352456200618345
sI526
F0.00034352456200618345
sI4623
F0.00017176228100309173
sI530
F0.00017176228100309173
sI10298
F0.00017176228100309173
sI532
F0.00017176228100309173
sI535
F0.00017176228100309173
sI431
F0.00017176228100309173
sI540
F0.00017176228100309173
sI4641
F0.00017176228100309173
sI546
F0.00017176228100309173
sI548
F0.00017176228100309173
sI550
F0.00017176228100309173
sI4188
F0.00017176228100309173
sI2605
F0.00017176228100309173
sI559
F0.00017176228100309173
sI560
F0.00034352456200618345
sI561
F0.00034352456200618345
sI562
F0.00017176228100309173
sI564
F0.00034352456200618345
sI565
F0.00017176228100309173
sI567
F0.00017176228100309173
sI2616
F0.00017176228100309173
sI570
F0.00034352456200618345
sI572
F0.00017176228100309173
sI575
F0.00017176228100309173
sI53824
F0.00017176228100309173
sI578
F0.00017176228100309173
sI2630
F0.00017176228100309173
sI584
F0.00017176228100309173
sI588
F0.00017176228100309173
sI589
F0.00017176228100309173
sI590
F0.00017176228100309173
sI2640
F0.00017176228100309173
sI593
F0.00017176228100309173
sI595
F0.00034352456200618345
sI596
F0.00017176228100309173
sI599
F0.00017176228100309173
sI600
F0.00017176228100309173
sI604
F0.00017176228100309173
sI605
F0.00017176228100309173
sI611
F0.00017176228100309173
sI616
F0.00017176228100309173
sI617
F0.00017176228100309173
sI618
F0.00034352456200618345
sI622
F0.00034352456200618345
sI625
F0.00017176228100309173
sI626
F0.00017176228100309173
sI627
F0.00017176228100309173
sI345
F0.00068704912401236691
sI639
F0.00017176228100309173
sI6788
F0.00017176228100309173
sI646
F0.00017176228100309173
sI2696
F0.00017176228100309173
sI654
F0.00017176228100309173
sI451
F0.00017176228100309173
sI660
F0.00017176228100309173
sI662
F0.00017176228100309173
sI6811
F0.00017176228100309173
sI670
F0.00017176228100309173
sI671
F0.00017176228100309173
sI672
F0.00017176228100309173
sI678
F0.00017176228100309173
sI2732
F0.00017176228100309173
sI688
F0.00017176228100309173
sI2737
F0.00034352456200618345
sI697
F0.00017176228100309173
sI699
F0.00017176228100309173
sI700
F0.00017176228100309173
sI705
F0.00017176228100309173
sI707
F0.00034352456200618345
sI2757
F0.00017176228100309173
sI8903
F0.00017176228100309173
sI10954
F0.00017176228100309173
sI719
F0.00017176228100309173
sI724
F0.00017176228100309173
sI728
F0.00017176228100309173
sI2778
F0.00017176228100309173
sI731
F0.00017176228100309173
sI734
F0.00034352456200618345
sI735
F0.00017176228100309173
sI739
F0.00017176228100309173
sI502
F0.00017176228100309173
sI748
F0.00017176228100309173
sI752
F0.00017176228100309173
sI2802
F0.00017176228100309173
sI467
F0.00017176228100309173
sI2804
F0.00017176228100309173
sI23287
F0.00017176228100309173
sI760
F0.00017176228100309173
sI768
F0.00017176228100309173
sI770
F0.00017176228100309173
sI2824
F0.00017176228100309173
sI777
F0.00017176228100309173
sI1155
F0.00017176228100309173
sI794
F0.00017176228100309173
sI801
F0.00017176228100309173
sI802
F0.00017176228100309173
sI2852
F0.00017176228100309173
sI2853
F0.00017176228100309173
sI810
F0.00017176228100309173
sI3207
F0.00017176228100309173
sI817
F0.00017176228100309173
sI4914
F0.00017176228100309173
sI825
F0.00017176228100309173
sI827
F0.00017176228100309173
sI832
F0.00017176228100309173
sI834
F0.00017176228100309173
sI6985
F0.00017176228100309173
sI846
F0.00017176228100309173
sI848
F0.00017176228100309173
sI849
F0.00017176228100309173
sI852
F0.00017176228100309173
sI4950
F0.00017176228100309173
sI2906
F0.00017176228100309173
sI871
F0.00034352456200618345
sI711
F0.00017176228100309173
sI1734
F0.00017176228100309173
sI882
F0.00017176228100309173
sI2195
F0.00017176228100309173
sI888
F0.00017176228100309173
sI895
F0.00017176228100309173
sI897
F0.00017176228100309173
sI4995
F0.00017176228100309173
sI909
F0.00017176228100309173
sI915
F0.00017176228100309173
sI5614
F0.00017176228100309173
sI2201
F0.00017176228100309173
sI922
F0.00017176228100309173
sI925
F0.00034352456200618345
sI5029
F0.00017176228100309173
sI1522
F0.00017176228100309173
sI945
F0.00017176228100309173
sI953
F0.00017176228100309173
sI959
F0.00017176228100309173
sI961
F0.00017176228100309173
sI13671
F0.00017176228100309173
sI2146
F0.00017176228100309173
sI7116
F0.00017176228100309173
sI978
F0.00017176228100309173
sI5075
F0.00017176228100309173
sI984
F0.00017176228100309173
sI19424
F0.00017176228100309173
sI5089
F0.00017176228100309173
sI1002
F0.00034352456200618345
sI1005
F0.00017176228100309173
sI3054
F0.00017176228100309173
sI3056
F0.00017176228100309173
sI3059
F0.00017176228100309173
sI1012
F0.00017176228100309173
sI170
F0.00034352456200618345
sI1023
F0.00017176228100309173
sI1028
F0.00017176228100309173
sI1036
F0.00017176228100309173
sI24994
F0.00017176228100309173
sI42000
F0.00017176228100309173
sI2565
F0.00017176228100309173
sI1057
F0.00017176228100309173
sI1060
F0.00017176228100309173
sI2225
F0.00017176228100309173
sI10333
F0.00017176228100309173
sI1084
F0.00017176228100309173
sI1099
F0.00017176228100309173
sI1110
F0.00017176228100309173
sI2233
F0.00017176228100309173
sI3162
F0.00017176228100309173
sI3174
F0.00017176228100309173
sI1127
F0.00017176228100309173
sI1131
F0.00017176228100309173
sI1132
F0.00017176228100309173
sI1145
F0.00017176228100309173
sI3194
F0.00017176228100309173
sI9347
F0.00017176228100309173
sI1157
F0.00017176228100309173
sI1159
F0.00017176228100309173
sI5257
F0.00017176228100309173
sI1171
F0.00017176228100309173
sI878
F0.00034352456200618345
sI1179
F0.00017176228100309173
sI1181
F0.00017176228100309173
sI3235
F0.00017176228100309173
sI1267
F0.00017176228100309173
sI1199
F0.00017176228100309173
sI1203
F0.00017176228100309173
sI1209
F0.00017176228100309173
sI1222
F0.00017176228100309173
sI1226
F0.00017176228100309173
sI1227
F0.00017176228100309173
sI1228
F0.00017176228100309173
sI1235
F0.00017176228100309173
sI1243
F0.00017176228100309173
sI1248
F0.00017176228100309173
sI3302
F0.00017176228100309173
sI3312
F0.00017176228100309173
sI3314
F0.00034352456200618345
sI6355
F0.00017176228100309173
sI1268
F0.00017176228100309173
sI7416
F0.00017176228100309173
sI1275
F0.00017176228100309173
sI1285
F0.00017176228100309173
sI1288
F0.00017176228100309173
sI1295
F0.00017176228100309173
sI1306
F0.00017176228100309173
sI7453
F0.00017176228100309173
sI1312
F0.00017176228100309173
sI1313
F0.00017176228100309173
sI1315
F0.00017176228100309173
sI3367
F0.00017176228100309173
sI2268
F0.00017176228100309173
sI1325
F0.00017176228100309173
sI3375
F0.00017176228100309173
sI1343
F0.00017176228100309173
sI5344
F0.00017176228100309173
sI23890
F0.00017176228100309173
sI318
F0.00017176228100309173
sI1376
F0.00017176228100309173
sI1383
F0.00017176228100309173
sI1386
F0.00017176228100309173
sI3435
F0.00017176228100309173
sI1399
F0.00017176228100309173
sI1403
F0.00017176228100309173
sI9597
F0.00017176228100309173
sI1419
F0.00017176228100309173
sI1421
F0.00017176228100309173
sI3479
F0.00017176228100309173
sI1433
F0.00017176228100309173
sI3485
F0.00017176228100309173
sI9631
F0.00017176228100309173
sI1443
F0.00017176228100309173
sI582
F0.00017176228100309173
sI1449
F0.00017176228100309173
sI3498
F0.00017176228100309173
sI1452
F0.00017176228100309173
sI5553
F0.00017176228100309173
sI1459
F0.00017176228100309173
sI244
F0.00017176228100309173
sI3524
F0.00017176228100309173
sI5587
F0.00017176228100309173
sI17881
F0.00017176228100309173
sI1507
F0.00017176228100309173
sI1514
F0.00017176228100309173
sI1518
F0.00017176228100309173
sI5618
F0.00017176228100309173
sI5620
F0.00017176228100309173
sI7700
F0.00017176228100309173
sI1559
F0.00017176228100309173
sI1560
F0.00017176228100309173
sI1578
F0.00017176228100309173
sI1579
F0.00017176228100309173
sI1585
F0.00017176228100309173
sI1586
F0.00034352456200618345
sI5683
F0.00017176228100309173
sI1596
F0.00017176228100309173
sI1600
F0.00017176228100309173
sI12465
F0.00017176228100309173
sI1612
F0.00017176228100309173
sI2782
F0.00017176228100309173
sI1642
F0.00017176228100309173
sI7796
F0.00017176228100309173
sI805
F0.00017176228100309173
sI26235
F0.00017176228100309173
sI1671
F0.00017176228100309173
sI38536
F0.00017176228100309173
sI1675
F0.00017176228100309173
sI24206
F0.00017176228100309173
sI22159
F0.00017176228100309173
sI9885
F0.00017176228100309173
sI3752
F0.00017176228100309173
sI1710
F0.00017176228100309173
sI3765
F0.00017176228100309173
sI1719
F0.00017176228100309173
sI1720
F0.00017176228100309173
sI6945
F0.00017176228100309173
sI14022
F0.00017176228100309173
sI972
F0.00034352456200618345
sI1745
F0.00017176228100309173
sI1747
F0.00017176228100309173
sI7923
F0.00017176228100309173
sI1782
F0.00017176228100309173
sI14077
F0.00017176228100309173
sI1795
F0.00017176228100309173
sI1799
F0.00017176228100309173
sI1814
F0.00017176228100309173
sI1826
F0.00017176228100309173
sI12069
F0.00017176228100309173
sI1672
F0.00017176228100309173
sI307
F0.00017176228100309173
sI1857
F0.00017176228100309173
sI1868
F0.00017176228100309173
sI2152
F0.00017176228100309173
sI1900
F0.00017176228100309173
sI1902
F0.00017176228100309173
sI14197
F0.00017176228100309173
sI319
F0.00017176228100309173
sI1916
F0.00017176228100309173
sI8061
F0.00017176228100309173
sI1919
F0.00017176228100309173
sI1923
F0.00017176228100309173
sI1925
F0.00017176228100309173
sI1932
F0.00017176228100309173
sI1937
F0.00017176228100309173
sI328
F0.00017176228100309173
sI4026
F0.00017176228100309173
sI1980
F0.00017176228100309173
sI66
F0.0020611473720371005
sI1999
F0.00017176228100309173
sI2004
F0.00017176228100309173
sI2006
F0.00017176228100309173
sI4089
F0.00017176228100309173
sI4061
F0.00017176228100309173
sI4065
F0.00017176228100309173
sI2019
F0.00017176228100309173
sI2027
F0.00017176228100309173
sI8185
F0.00017176228100309173
sI2045
F0.00017176228100309173
sag2
(g3
tRp5
I0
F0.26606409202958092
sI1
F0.1009038619556286
sI2
F0.063599013968775681
sI3
F0.042399342645850449
sI4
F0.032374691865242403
sI5
F0.026129827444535743
sI6
F0.01972062448644207
sI7
F0.015940838126540673
sI8
F0.016433853738701727
sI9
F0.012982744453574363
sI10
F0.0087099424815119137
sI11
F0.0092029580936729659
sI12
F0.010024650780608053
sI13
F0.0085456039441248969
sI14
F0.0093672966310599844
sI15
F0.0075595727198027934
sI16
F0.0083812654067378801
sI17
F0.0059161873459326209
sI18
F0.0052588331963845519
sI19
F0.0065735414954806899
sI20
F0.0057518488085456041
sI21
F0.0052588331963845519
sI22
F0.0067378800328677076
sI23
F0.0069022185702547244
sI24
F0.0065735414954806899
sI25
F0.0047658175842235006
sI26
F0.0047658175842235006
sI27
F0.0042728019720624484
sI28
F0.0041084634346754316
sI29
F0.003944124897288414
sI30
F0.0047658175842235006
sI31
F0.0031224322103533277
sI32
F0.0027937551355792932
sI33
F0.0023007395234182415
sI34
F0.0024650780608052587
sI35
F0.0034511092851273622
sI36
F0.0018077239112571897
sI37
F0.003286770747740345
sI38
F0.0034511092851273622
sI39
F0.0021364009860312242
sI40
F0.0018077239112571897
sI41
F0.0029580936729663105
sI42
F0.002629416598192276
sI43
F0.0023007395234182415
sI44
F0.0021364009860312242
sI45
F0.001972062448644207
sI46
F0.0018077239112571897
sI47
F0.0021364009860312242
sI48
F0.0024650780608052587
sI49
F0.0021364009860312242
sI50
F0.001972062448644207
sI51
F0.0023007395234182415
sI52
F0.0021364009860312242
sI53
F0.002629416598192276
sI54
F0.0014790468364831552
sI55
F0.0014790468364831552
sI56
F0.0011503697617091207
sI57
F0.001314708299096138
sI58
F0.0018077239112571897
sI59
F0.001314708299096138
sI60
F0.00065735414954806899
sI61
F0.0011503697617091207
sI62
F0.0014790468364831552
sI63
F0.0016433853738701725
sI64
F0.0024650780608052587
sI65
F0.00098603122432210349
sI66
F0.0018077239112571897
sI67
F0.0014790468364831552
sI68
F0.0011503697617091207
sI69
F0.001314708299096138
sI70
F0.001972062448644207
sI71
F0.00082169268693508624
sI72
F0.001314708299096138
sI73
F0.00082169268693508624
sI74
F0.00065735414954806899
sI8267
F0.00016433853738701725
sI76
F0.0018077239112571897
sI77
F0.00049301561216105174
sI78
F0.0011503697617091207
sI79
F0.00082169268693508624
sI12368
F0.00016433853738701725
sI81
F0.0014790468364831552
sI82
F0.0011503697617091207
sI83
F0.0011503697617091207
sI84
F0.00098603122432210349
sI85
F0.00065735414954806899
sI86
F0.00098603122432210349
sI87
F0.00065735414954806899
sI88
F0.0003286770747740345
sI89
F0.00049301561216105174
sI90
F0.00065735414954806899
sI91
F0.001314708299096138
sI92
F0.00049301561216105174
sI93
F0.00065735414954806899
sI94
F0.0003286770747740345
sI95
F0.00082169268693508624
sI96
F0.00049301561216105174
sI97
F0.00098603122432210349
sI99
F0.0003286770747740345
sI100
F0.00098603122432210349
sI101
F0.00098603122432210349
sI102
F0.0003286770747740345
sI103
F0.00065735414954806899
sI104
F0.0011503697617091207
sI105
F0.00065735414954806899
sI106
F0.0003286770747740345
sI107
F0.0003286770747740345
sI108
F0.00082169268693508624
sI109
F0.00049301561216105174
sI110
F0.00098603122432210349
sI111
F0.00065735414954806899
sI112
F0.00016433853738701725
sI113
F0.00082169268693508624
sI114
F0.00049301561216105174
sI115
F0.00016433853738701725
sI117
F0.00065735414954806899
sI118
F0.00016433853738701725
sI361
F0.0003286770747740345
sI120
F0.00049301561216105174
sI121
F0.00065735414954806899
sI122
F0.0003286770747740345
sI123
F0.00016433853738701725
sI124
F0.0003286770747740345
sI125
F0.00065735414954806899
sI126
F0.00016433853738701725
sI127
F0.0003286770747740345
sI128
F0.00082169268693508624
sI129
F0.00065735414954806899
sI130
F0.0003286770747740345
sI131
F0.00098603122432210349
sI132
F0.00049301561216105174
sI133
F0.00065735414954806899
sI134
F0.0011503697617091207
sI135
F0.00082169268693508624
sI136
F0.0011503697617091207
sI137
F0.00098603122432210349
sI138
F0.00065735414954806899
sI139
F0.00065735414954806899
sI140
F0.00049301561216105174
sI141
F0.00049301561216105174
sI142
F0.00049301561216105174
sI143
F0.00065735414954806899
sI144
F0.00065735414954806899
sI145
F0.00065735414954806899
sI146
F0.00049301561216105174
sI147
F0.00049301561216105174
sI2196
F0.00016433853738701725
sI149
F0.0003286770747740345
sI150
F0.00016433853738701725
sI6169
F0.00016433853738701725
sI152
F0.0003286770747740345
sI153
F0.00049301561216105174
sI154
F0.00082169268693508624
sI155
F0.00049301561216105174
sI156
F0.00016433853738701725
sI157
F0.00016433853738701725
sI158
F0.00016433853738701725
sI159
F0.00016433853738701725
sI160
F0.00049301561216105174
sI161
F0.0003286770747740345
sI162
F0.0003286770747740345
sI163
F0.00065735414954806899
sI164
F0.0003286770747740345
sI8357
F0.00016433853738701725
sI166
F0.00049301561216105174
sI167
F0.00016433853738701725
sI169
F0.00016433853738701725
sI170
F0.00016433853738701725
sI171
F0.00016433853738701725
sI2220
F0.00016433853738701725
sI174
F0.00049301561216105174
sI177
F0.0003286770747740345
sI178
F0.00016433853738701725
sI179
F0.00016433853738701725
sI180
F0.00065735414954806899
sI181
F0.00049301561216105174
sI183
F0.00049301561216105174
sI184
F0.00049301561216105174
sI185
F0.00065735414954806899
sI186
F0.0003286770747740345
sI187
F0.00065735414954806899
sI188
F0.00065735414954806899
sI189
F0.0003286770747740345
sI190
F0.0003286770747740345
sI191
F0.0003286770747740345
sI192
F0.00016433853738701725
sI2080
F0.00016433853738701725
sI194
F0.00016433853738701725
sI195
F0.0011503697617091207
sI196
F0.00016433853738701725
sI197
F0.00016433853738701725
sI198
F0.00049301561216105174
sI199
F0.00082169268693508624
sI201
F0.00016433853738701725
sI202
F0.0003286770747740345
sI203
F0.00016433853738701725
sI204
F0.00016433853738701725
sI205
F0.00049301561216105174
sI206
F0.00016433853738701725
sI207
F0.00049301561216105174
sI208
F0.0003286770747740345
sI209
F0.00016433853738701725
sI211
F0.0003286770747740345
sI212
F0.00049301561216105174
sI2261
F0.00016433853738701725
sI214
F0.00049301561216105174
sI216
F0.00016433853738701725
sI217
F0.00016433853738701725
sI218
F0.0003286770747740345
sI219
F0.00098603122432210349
sI4316
F0.00016433853738701725
sI221
F0.0003286770747740345
sI222
F0.00049301561216105174
sI224
F0.00016433853738701725
sI225
F0.00016433853738701725
sI226
F0.00016433853738701725
sI227
F0.0003286770747740345
sI228
F0.00065735414954806899
sI230
F0.0003286770747740345
sI232
F0.0003286770747740345
sI233
F0.00016433853738701725
sI234
F0.00049301561216105174
sI236
F0.0003286770747740345
sI238
F0.00065735414954806899
sI239
F0.0003286770747740345
sI240
F0.0003286770747740345
sI2088
F0.00016433853738701725
sI242
F0.00049301561216105174
sI243
F0.0003286770747740345
sI244
F0.0003286770747740345
sI245
F0.00049301561216105174
sI246
F0.00016433853738701725
sI247
F0.00016433853738701725
sI20728
F0.00016433853738701725
sI249
F0.00016433853738701725
sI250
F0.00016433853738701725
sI251
F0.0003286770747740345
sI16636
F0.00016433853738701725
sI254
F0.0003286770747740345
sI6399
F0.00016433853738701725
sI256
F0.0003286770747740345
sI260
F0.00049301561216105174
sI263
F0.00016433853738701725
sI264
F0.00049301561216105174
sI265
F0.00016433853738701725
sI267
F0.00016433853738701725
sI268
F0.0003286770747740345
sI4365
F0.00016433853738701725
sI270
F0.00016433853738701725
sI272
F0.00016433853738701725
sI273
F0.00016433853738701725
sI274
F0.0003286770747740345
sI275
F0.0003286770747740345
sI277
F0.00016433853738701725
sI278
F0.00016433853738701725
sI2055
F0.00016433853738701725
sI281
F0.00016433853738701725
sI12570
F0.00016433853738701725
sI283
F0.00016433853738701725
sI284
F0.0003286770747740345
sI285
F0.0003286770747740345
sI287
F0.00016433853738701725
sI288
F0.0003286770747740345
sI290
F0.00016433853738701725
sI292
F0.0003286770747740345
sI293
F0.0003286770747740345
sI2342
F0.00016433853738701725
sI295
F0.00016433853738701725
sI296
F0.00016433853738701725
sI298
F0.0003286770747740345
sI299
F0.00016433853738701725
sI300
F0.0003286770747740345
sI301
F0.00016433853738701725
sI4399
F0.00016433853738701725
sI305
F0.00016433853738701725
sI12594
F0.00016433853738701725
sI2355
F0.00016433853738701725
sI308
F0.0003286770747740345
sI309
F0.0003286770747740345
sI10550
F0.00016433853738701725
sI311
F0.00016433853738701725
sI2100
F0.00016433853738701725
sI314
F0.00016433853738701725
sI316
F0.00016433853738701725
sI318
F0.00016433853738701725
sI319
F0.00098603122432210349
sI2368
F0.00016433853738701725
sI322
F0.00016433853738701725
sI324
F0.0003286770747740345
sI327
F0.00016433853738701725
sI328
F0.00016433853738701725
sI330
F0.0003286770747740345
sI332
F0.00016433853738701725
sI333
F0.00016433853738701725
sI336
F0.00016433853738701725
sI338
F0.00016433853738701725
sI2105
F0.00016433853738701725
sI344
F0.00049301561216105174
sI346
F0.00016433853738701725
sI347
F0.0003286770747740345
sI349
F0.0003286770747740345
sI351
F0.00016433853738701725
sI353
F0.0003286770747740345
sI355
F0.00016433853738701725
sI356
F0.00016433853738701725
sI2405
F0.00016433853738701725
sI358
F0.0003286770747740345
sI2108
F0.00016433853738701725
sI363
F0.0003286770747740345
sI4461
F0.0003286770747740345
sI366
F0.0003286770747740345
sI29039
F0.00016433853738701725
sI373
F0.00016433853738701725
sI374
F0.0003286770747740345
sI375
F0.00016433853738701725
sI376
F0.0003286770747740345
sI377
F0.00016433853738701725
sI2111
F0.00016433853738701725
sI380
F0.00016433853738701725
sI381
F0.00016433853738701725
sI382
F0.0003286770747740345
sI383
F0.00049301561216105174
sI4160
F0.00016433853738701725
sI747
F0.00016433853738701725
sI388
F0.00016433853738701725
sI390
F0.00016433853738701725
sI394
F0.00016433853738701725
sI397
F0.00016433853738701725
sI398
F0.00016433853738701725
sI399
F0.00016433853738701725
sI403
F0.00016433853738701725
sI2453
F0.00016433853738701725
sI16790
F0.00016433853738701725
sI409
F0.00016433853738701725
sI2116
F0.00016433853738701725
sI410
F0.00016433853738701725
sI412
F0.00016433853738701725
sI417
F0.00016433853738701725
sI420
F0.00016433853738701725
sI421
F0.00016433853738701725
sI422
F0.00016433853738701725
sI2471
F0.00016433853738701725
sI425
F0.00016433853738701725
sI426
F0.00049301561216105174
sI427
F0.00016433853738701725
sI428
F0.00016433853738701725
sI4526
F0.00016433853738701725
sI431
F0.00016433853738701725
sI433
F0.00016433853738701725
sI436
F0.0003286770747740345
sI437
F0.00016433853738701725
sI438
F0.00016433853738701725
sI2487
F0.00016433853738701725
sI10680
F0.00016433853738701725
sI442
F0.00016433853738701725
sI443
F0.00016433853738701725
sI446
F0.00016433853738701725
sI447
F0.0003286770747740345
sI2496
F0.00016433853738701725
sI2497
F0.00016433853738701725
sI450
F0.00016433853738701725
sI75
F0.00098603122432210349
sI452
F0.0003286770747740345
sI455
F0.0003286770747740345
sI457
F0.0003286770747740345
sI459
F0.0003286770747740345
sI461
F0.00016433853738701725
sI4558
F0.00016433853738701725
sI2511
F0.00016433853738701725
sI464
F0.00016433853738701725
sI465
F0.00016433853738701725
sI2516
F0.00016433853738701725
sI2517
F0.00016433853738701725
sI471
F0.00016433853738701725
sI474
F0.0003286770747740345
sI475
F0.0003286770747740345
sI476
F0.0003286770747740345
sI80
F0.00082169268693508624
sI486
F0.00016433853738701725
sI2129
F0.00016433853738701725
sI488
F0.00016433853738701725
sI489
F0.0003286770747740345
sI490
F0.0003286770747740345
sI8683
F0.00016433853738701725
sI492
F0.00016433853738701725
sI493
F0.00016433853738701725
sI498
F0.00016433853738701725
sI499
F0.00016433853738701725
sI10740
F0.00016433853738701725
sI501
F0.00016433853738701725
sI509
F0.00016433853738701725
sI510
F0.0003286770747740345
sI512
F0.00016433853738701725
sI4612
F0.0003286770747740345
sI517
F0.00016433853738701725
sI521
F0.00016433853738701725
sI524
F0.00016433853738701725
sI526
F0.00016433853738701725
sI529
F0.00016433853738701725
sI530
F0.00016433853738701725
sI430
F0.00016433853738701725
sI1859
F0.00016433853738701725
sI541
F0.00016433853738701725
sI8736
F0.00016433853738701725
sI545
F0.00016433853738701725
sI547
F0.00016433853738701725
sI551
F0.00016433853738701725
sI555
F0.00016433853738701725
sI2612
F0.00016433853738701725
sI566
F0.00016433853738701725
sI571
F0.00016433853738701725
sI572
F0.0003286770747740345
sI575
F0.0003286770747740345
sI576
F0.00016433853738701725
sI577
F0.00016433853738701725
sI578
F0.00016433853738701725
sI581
F0.00016433853738701725
sI582
F0.00016433853738701725
sI584
F0.0003286770747740345
sI585
F0.00016433853738701725
sI586
F0.0003286770747740345
sI588
F0.00016433853738701725
sI589
F0.00016433853738701725
sI2638
F0.00016433853738701725
sI593
F0.00016433853738701725
sI596
F0.0003286770747740345
sI597
F0.00016433853738701725
sI598
F0.00016433853738701725
sI600
F0.00016433853738701725
sI12889
F0.00016433853738701725
sI2657
F0.00016433853738701725
sI610
F0.00016433853738701725
sI2660
F0.0003286770747740345
sI613
F0.00016433853738701725
sI617
F0.00016433853738701725
sI2666
F0.00016433853738701725
sI620
F0.00016433853738701725
sI622
F0.00016433853738701725
sI625
F0.00016433853738701725
sI627
F0.00016433853738701725
sI628
F0.00016433853738701725
sI629
F0.00016433853738701725
sI632
F0.00016433853738701725
sI636
F0.00016433853738701725
sI637
F0.0003286770747740345
sI639
F0.0003286770747740345
sI448
F0.0003286770747740345
sI643
F0.00016433853738701725
sI646
F0.00016433853738701725
sI649
F0.00016433853738701725
sI650
F0.00016433853738701725
sI26050
F0.00016433853738701725
sI17049
F0.00016433853738701725
sI666
F0.00016433853738701725
sI667
F0.00016433853738701725
sI670
F0.00016433853738701725
sI2409
F0.00016433853738701725
sI673
F0.0003286770747740345
sI677
F0.00016433853738701725
sI678
F0.00016433853738701725
sI2727
F0.00016433853738701725
sI6829
F0.00016433853738701725
sI686
F0.00016433853738701725
sI687
F0.00016433853738701725
sI691
F0.00016433853738701725
sI700
F0.00016433853738701725
sI701
F0.00016433853738701725
sI2750
F0.00016433853738701725
sI8898
F0.00016433853738701725
sI707
F0.00016433853738701725
sI710
F0.00016433853738701725
sI711
F0.00016433853738701725
sI2760
F0.00016433853738701725
sI714
F0.00016433853738701725
sI1143
F0.00016433853738701725
sI718
F0.00016433853738701725
sI721
F0.00016433853738701725
sI722
F0.00016433853738701725
sI724
F0.00016433853738701725
sI462
F0.00016433853738701725
sI726
F0.00016433853738701725
sI53977
F0.00016433853738701725
sI736
F0.00016433853738701725
sI737
F0.00016433853738701725
sI2795
F0.00016433853738701725
sI4849
F0.00016433853738701725
sI10994
F0.00016433853738701725
sI2804
F0.00016433853738701725
sI21166
F0.00016433853738701725
sI768
F0.00016433853738701725
sI770
F0.00016433853738701725
sI2819
F0.0003286770747740345
sI774
F0.00016433853738701725
sI778
F0.0003286770747740345
sI780
F0.0003286770747740345
sI784
F0.0003286770747740345
sI367
F0.00016433853738701725
sI788
F0.00016433853738701725
sI789
F0.0003286770747740345
sI794
F0.00016433853738701725
sI796
F0.00016433853738701725
sI800
F0.00016433853738701725
sI2850
F0.00016433853738701725
sI803
F0.00016433853738701725
sI805
F0.00016433853738701725
sI807
F0.0003286770747740345
sI811
F0.00016433853738701725
sI813
F0.00016433853738701725
sI3549
F0.00016433853738701725
sI819
F0.0003286770747740345
sI821
F0.00016433853738701725
sI824
F0.00016433853738701725
sI825
F0.00016433853738701725
sI2874
F0.00016433853738701725
sI2886
F0.00016433853738701725
sI839
F0.00016433853738701725
sI853
F0.00016433853738701725
sI857
F0.00016433853738701725
sI860
F0.00049301561216105174
sI8553
F0.00016433853738701725
sI864
F0.00016433853738701725
sI2913
F0.00016433853738701725
sI867
F0.0003286770747740345
sI870
F0.00016433853738701725
sI2193
F0.00016433853738701725
sI21353
F0.00016433853738701725
sI487
F0.0003286770747740345
sI877
F0.00016433853738701725
sI878
F0.00016433853738701725
sI887
F0.00016433853738701725
sI148
F0.0003286770747740345
sI900
F0.00016433853738701725
sI902
F0.00016433853738701725
sI11144
F0.00016433853738701725
sI2485
F0.00016433853738701725
sI906
F0.00016433853738701725
sI151
F0.0003286770747740345
sI911
F0.00016433853738701725
sI7056
F0.00016433853738701725
sI303
F0.00016433853738701725
sI915
F0.00016433853738701725
sI921
F0.00016433853738701725
sI4250
F0.00016433853738701725
sI927
F0.0003286770747740345
sI934
F0.00016433853738701725
sI939
F0.00016433853738701725
sI119
F0.0003286770747740345
sI943
F0.00016433853738701725
sI11188
F0.00016433853738701725
sI950
F0.00016433853738701725
sI8215
F0.00016433853738701725
sI500
F0.00016433853738701725
sI2549
F0.00016433853738701725
sI4256
F0.00016433853738701725
sI963
F0.00016433853738701725
sI970
F0.00016433853738701725
sI3019
F0.00016433853738701725
sI973
F0.00016433853738701725
sI976
F0.00016433853738701725
sI982
F0.00016433853738701725
sI984
F0.00016433853738701725
sI985
F0.00016433853738701725
sI1871
F0.00016433853738701725
sI990
F0.00016433853738701725
sI992
F0.00016433853738701725
sI993
F0.00016433853738701725
sI995
F0.00016433853738701725
sI997
F0.00016433853738701725
sI1000
F0.00016433853738701725
sI1001
F0.00049301561216105174
sI1002
F0.00016433853738701725
sI3053
F0.00016433853738701725
sI14845
F0.00016433853738701725
sI1013
F0.00016433853738701725
sI1016
F0.00016433853738701725
sI3066
F0.00016433853738701725
sI5117
F0.00016433853738701725
sI1024
F0.00016433853738701725
sI1034
F0.00016433853738701725
sI1057
F0.00016433853738701725
sI1077
F0.00016433853738701725
sI1079
F0.00016433853738701725
sI1081
F0.00016433853738701725
sI2229
F0.00016433853738701725
sI1092
F0.00016433853738701725
sI7879
F0.00016433853738701725
sI3597
F0.00016433853738701725
sI1113
F0.00016433853738701725
sI4283
F0.00016433853738701725
sI1126
F0.00016433853738701725
sI1140
F0.00016433853738701725
sI1142
F0.00016433853738701725
sI3191
F0.00016433853738701725
sI1144
F0.00016433853738701725
sI379
F0.00016433853738701725
sI1151
F0.00016433853738701725
sI3201
F0.00016433853738701725
sI1159
F0.0003286770747740345
sI1161
F0.00016433853738701725
sI2289
F0.00016433853738701725
sI5266
F0.00016433853738701725
sI3220
F0.00016433853738701725
sI1176
F0.00016433853738701725
sI5280
F0.00016433853738701725
sI17569
F0.00016433853738701725
sI7337
F0.00016433853738701725
sI1196
F0.00016433853738701725
sI1205
F0.0003286770747740345
sI15547
F0.00016433853738701725
sI3274
F0.00016433853738701725
sI7370
F0.00016433853738701725
sI889
F0.00016433853738701725
sI1244
F0.00016433853738701725
sI7390
F0.00016433853738701725
sI9441
F0.00016433853738701725
sI5348
F0.00016433853738701725
sI1255
F0.00016433853738701725
sI1256
F0.00016433853738701725
sI1258
F0.00016433853738701725
sI3311
F0.00016433853738701725
sI1267
F0.00016433853738701725
sI21756
F0.00016433853738701725
sI14549
F0.00016433853738701725
sI1290
F0.00016433853738701725
sI1295
F0.00016433853738701725
sI1297
F0.0003286770747740345
sI1299
F0.00016433853738701725
sI13871
F0.00016433853738701725
sI248
F0.0003286770747740345
sI3363
F0.00016433853738701725
sI3369
F0.00016433853738701725
sI1323
F0.00016433853738701725
sI3634
F0.00016433853738701725
sI1327
F0.00016433853738701725
sI385
F0.00016433853738701725
sI7482
F0.00016433853738701725
sI1249
F0.00016433853738701725
sI3400
F0.00016433853738701725
sI13641
F0.00016433853738701725
sI2159
F0.00016433853738701725
sI1357
F0.00016433853738701725
sI2275
F0.00016433853738701725
sI1252
F0.00016433853738701725
sI1376
F0.00016433853738701725
sI1382
F0.00016433853738701725
sI5480
F0.00016433853738701725
sI5490
F0.00016433853738701725
sI1404
F0.00016433853738701725
sI3454
F0.00016433853738701725
sI1417
F0.00016433853738701725
sI3468
F0.00016433853738701725
sI25999
F0.00016433853738701725
sI4298
F0.00016433853738701725
sI3480
F0.00016433853738701725
sI9628
F0.00016433853738701725
sI1443
F0.00016433853738701725
sI1446
F0.00016433853738701725
sI1447
F0.00016433853738701725
sI3512
F0.00016433853738701725
sI3519
F0.00016433853738701725
sI7617
F0.00016433853738701725
sI1474
F0.00016433853738701725
sI1478
F0.00016433853738701725
sI5580
F0.00016433853738701725
sI6392
F0.00016433853738701725
sI2192
F0.00016433853738701725
sI3542
F0.00016433853738701725
sI1495
F0.00016433853738701725
sI2298
F0.00016433853738701725
sI5604
F0.00016433853738701725
sI1512
F0.00016433853738701725
sI1516
F0.00016433853738701725
sI1519
F0.00016433853738701725
sI1525
F0.00016433853738701725
sI255
F0.00016433853738701725
sI1538
F0.00016433853738701725
sI27222
F0.00016433853738701725
sI50694
F0.00016433853738701725
sI3594
F0.00016433853738701725
sI5645
F0.00016433853738701725
sI36369
F0.00016433853738701725
sI7724
F0.00016433853738701725
sI1582
F0.00016433853738701725
sI1583
F0.00016433853738701725
sI2312
F0.00016433853738701725
sI1586
F0.00016433853738701725
sI3638
F0.00016433853738701725
sI3640
F0.00016433853738701725
sI1599
F0.00016433853738701725
sI1601
F0.00016433853738701725
sI30278
F0.00016433853738701725
sI2658
F0.00016433853738701725
sI269
F0.00016433853738701725
sI2056
F0.00016433853738701725
sI612
F0.00016433853738701725
sI5725
F0.00016433853738701725
sI1631
F0.00016433853738701725
sI1638
F0.00016433853738701725
sI11881
F0.00016433853738701725
sI11886
F0.00016433853738701725
sI1652
F0.00016433853738701725
sI4374
F0.00016433853738701725
sI1679
F0.00016433853738701725
sI1680
F0.00016433853738701725
sI280
F0.00016433853738701725
sI1684
F0.00016433853738701725
sI9877
F0.00016433853738701725
sI1688
F0.00016433853738701725
sI1184
F0.00016433853738701725
sI1691
F0.00016433853738701725
sI3745
F0.00016433853738701725
sI3747
F0.00016433853738701725
sI193
F0.00016433853738701725
sI5803
F0.00016433853738701725
sI1726
F0.00016433853738701725
sI3775
F0.00016433853738701725
sI1731
F0.00016433853738701725
sI1735
F0.00016433853738701725
sI1737
F0.00016433853738701725
sI3800
F0.00016433853738701725
sI3804
F0.00016433853738701725
sI1763
F0.00016433853738701725
sI294
F0.00016433853738701725
sI1423
F0.00016433853738701725
sI3829
F0.00016433853738701725
sI5880
F0.00016433853738701725
sI1786
F0.00016433853738701725
sI1788
F0.00016433853738701725
sI1794
F0.00016433853738701725
sI3844
F0.00016433853738701725
sI6163
F0.00016433853738701725
sI7947
F0.00016433853738701725
sI3856
F0.00016433853738701725
sI1814
F0.00016433853738701725
sI10011
F0.00016433853738701725
sI3879
F0.00016433853738701725
sI1837
F0.00016433853738701725
sI2107
F0.00016433853738701725
sI307
F0.00049301561216105174
sI1846
F0.00016433853738701725
sI1847
F0.00016433853738701725
sI1851
F0.00016433853738701725
sI1857
F0.00016433853738701725
sI36675
F0.00016433853738701725
sI4406
F0.00016433853738701725
sI1862
F0.00016433853738701725
sI1868
F0.00016433853738701725
sI653
F0.0003286770747740345
sI1873
F0.00016433853738701725
sI313
F0.00016433853738701725
sI1338
F0.00016433853738701725
sI1899
F0.00016433853738701725
sI6000
F0.00016433853738701725
sI3957
F0.00016433853738701725
sI1930
F0.00016433853738701725
sI3739
F0.00016433853738701725
sI4008
F0.00016433853738701725
sI1963
F0.00016433853738701725
sI1965
F0.00016433853738701725
sI1966
F0.00016433853738701725
sI1974
F0.00016433853738701725
sI671
F0.00016433853738701725
sI16316
F0.00016433853738701725
sI1987
F0.00016433853738701725
sI4323
F0.00016433853738701725
sI4054
F0.00016433853738701725
sI4055
F0.00016433853738701725
sI2008
F0.00016433853738701725
sI4432
F0.00016433853738701725
sI2020
F0.00016433853738701725
sI2039
F0.00016433853738701725
sI2523
F0.00016433853738701725
sa.