(lp1
ccollections
defaultdict
p2
(c__builtin__
float
p3
tRp4
I0
F0.28588132125109617
sI1
F0.10815551008477053
sI2
F0.068401052323881911
sI3
F0.0461853259280912
sI4
F0.032446653025431163
sI5
F0.027769657994738382
sI6
F0.020461853259280911
sI7
F0.019000292312189419
sI8
F0.01607717041800643
sI9
F0.012861736334405145
sI10
F0.0096463022508038593
sI11
F0.0084770534931306631
sI12
F0.008769365682548963
sI13
F0.0078924291142940667
sI14
F0.0099386144402221575
sI15
F0.0078924291142940667
sI16
F0.0070154925460391695
sI17
F0.0064308681672025723
sI18
F0.0035077462730195848
sI19
F0.0073078047354574686
sI20
F0.0049693072201110787
sI21
F0.005553931598947676
sI22
F0.005553931598947676
sI23
F0.008769365682548963
sI24
F0.0064308681672025723
sI25
F0.005553931598947676
sI26
F0.0040923706518561824
sI27
F0.0049693072201110787
sI28
F0.0043846828412744815
sI29
F0.0032154340836012861
sI30
F0.005553931598947676
sI31
F0.0032154340836012861
sI32
F0.0020461853259280912
sI33
F0.00058462437883659746
sI34
F0.0020461853259280912
sI35
F0.0035077462730195848
sI36
F0.0017538731365097924
sI37
F0.0032154340836012861
sI38
F0.0026308097047646889
sI39
F0.0020461853259280912
sI40
F0.0017538731365097924
sI41
F0.0023384975153463898
sI42
F0.0038000584624378838
sI43
F0.0014615609470914938
sI44
F0.0020461853259280912
sI45
F0.0017538731365097924
sI46
F0.0026308097047646889
sI47
F0.0017538731365097924
sI48
F0.0026308097047646889
sI49
F0.0017538731365097924
sI50
F0.0023384975153463898
sI51
F0.0023384975153463898
sI52
F0.0014615609470914938
sI53
F0.0026308097047646889
sI54
F0.0011692487576731949
sI55
F0.0014615609470914938
sI56
F0.00087693656825489619
sI57
F0.0014615609470914938
sI58
F0.0026308097047646889
sI59
F0.0014615609470914938
sI60
F0.00058462437883659746
sI61
F0.00087693656825489619
sI62
F0.00087693656825489619
sI63
F0.0017538731365097924
sI64
F0.0026308097047646889
sI65
F0.00087693656825489619
sI66
F0.0014615609470914938
sI67
F0.00087693656825489619
sI68
F0.0011692487576731949
sI69
F0.00087693656825489619
sI70
F0.0014615609470914938
sI71
F0.00087693656825489619
sI72
F0.0017538731365097924
sI73
F0.00058462437883659746
sI74
F0.00058462437883659746
sI8267
F0.00029231218941829873
sI76
F0.0014615609470914938
sI77
F0.00029231218941829873
sI78
F0.00087693656825489619
sI79
F0.00058462437883659746
sI12368
F0.00029231218941829873
sI81
F0.0011692487576731949
sI82
F0.0014615609470914938
sI83
F0.0011692487576731949
sI85
F0.0011692487576731949
sI86
F0.00087693656825489619
sI87
F0.0011692487576731949
sI88
F0.00029231218941829873
sI89
F0.00058462437883659746
sI90
F0.00087693656825489619
sI91
F0.00087693656825489619
sI92
F0.00087693656825489619
sI93
F0.00029231218941829873
sI94
F0.00058462437883659746
sI95
F0.00087693656825489619
sI97
F0.00058462437883659746
sI99
F0.00058462437883659746
sI100
F0.00058462437883659746
sI101
F0.00087693656825489619
sI103
F0.00058462437883659746
sI104
F0.0011692487576731949
sI105
F0.00087693656825489619
sI107
F0.00058462437883659746
sI108
F0.00029231218941829873
sI109
F0.00058462437883659746
sI110
F0.00058462437883659746
sI111
F0.00029231218941829873
sI112
F0.00029231218941829873
sI113
F0.00087693656825489619
sI114
F0.00058462437883659746
sI115
F0.00029231218941829873
sI117
F0.00058462437883659746
sI120
F0.00058462437883659746
sI121
F0.00087693656825489619
sI124
F0.00029231218941829873
sI125
F0.0011692487576731949
sI128
F0.0014615609470914938
sI131
F0.00087693656825489619
sI132
F0.00029231218941829873
sI133
F0.00058462437883659746
sI134
F0.00058462437883659746
sI135
F0.00058462437883659746
sI136
F0.00087693656825489619
sI137
F0.00087693656825489619
sI138
F0.00058462437883659746
sI139
F0.00058462437883659746
sI140
F0.00029231218941829873
sI142
F0.00087693656825489619
sI143
F0.00058462437883659746
sI144
F0.00029231218941829873
sI2193
F0.00029231218941829873
sI146
F0.00058462437883659746
sI147
F0.00029231218941829873
sI148
F0.00029231218941829873
sI149
F0.00029231218941829873
sI150
F0.00029231218941829873
sI151
F0.00029231218941829873
sI152
F0.00029231218941829873
sI154
F0.0011692487576731949
sI155
F0.00029231218941829873
sI156
F0.00058462437883659746
sI157
F0.00029231218941829873
sI160
F0.00029231218941829873
sI162
F0.00058462437883659746
sI164
F0.00029231218941829873
sI167
F0.00029231218941829873
sI174
F0.00058462437883659746
sI177
F0.00087693656825489619
sI179
F0.00029231218941829873
sI180
F0.00029231218941829873
sI181
F0.00058462437883659746
sI183
F0.00029231218941829873
sI184
F0.00029231218941829873
sI185
F0.00029231218941829873
sI186
F0.00058462437883659746
sI188
F0.00087693656825489619
sI189
F0.00029231218941829873
sI191
F0.00029231218941829873
sI192
F0.00029231218941829873
sI195
F0.00087693656825489619
sI198
F0.00029231218941829873
sI199
F0.00058462437883659746
sI202
F0.00029231218941829873
sI206
F0.00029231218941829873
sI207
F0.00029231218941829873
sI208
F0.00029231218941829873
sI211
F0.00029231218941829873
sI212
F0.00058462437883659746
sI214
F0.00058462437883659746
sI215
F0.00029231218941829873
sI217
F0.00029231218941829873
sI218
F0.00029231218941829873
sI219
F0.00029231218941829873
sI221
F0.00058462437883659746
sI222
F0.00058462437883659746
sI226
F0.00029231218941829873
sI227
F0.00058462437883659746
sI228
F0.00087693656825489619
sI230
F0.00029231218941829873
sI232
F0.00029231218941829873
sI234
F0.00058462437883659746
sI236
F0.00058462437883659746
sI238
F0.00087693656825489619
sI240
F0.00029231218941829873
sI2088
F0.00029231218941829873
sI243
F0.00058462437883659746
sI244
F0.00029231218941829873
sI245
F0.00058462437883659746
sI246
F0.00029231218941829873
sI248
F0.00029231218941829873
sI249
F0.00029231218941829873
sI250
F0.00029231218941829873
sI251
F0.00058462437883659746
sI16636
F0.00029231218941829873
sI6399
F0.00029231218941829873
sI259
F0.00029231218941829873
sI263
F0.00029231218941829873
sI264
F0.00029231218941829873
sI267
F0.00029231218941829873
sI268
F0.00058462437883659746
sI4365
F0.00029231218941829873
sI270
F0.00029231218941829873
sI272
F0.00029231218941829873
sI274
F0.00058462437883659746
sI275
F0.00029231218941829873
sI280
F0.00029231218941829873
sI281
F0.00029231218941829873
sI285
F0.00029231218941829873
sI288
F0.00029231218941829873
sI290
F0.00029231218941829873
sI292
F0.00058462437883659746
sI293
F0.00058462437883659746
sI2342
F0.00029231218941829873
sI298
F0.00029231218941829873
sI300
F0.00058462437883659746
sI305
F0.00029231218941829873
sI12594
F0.00029231218941829873
sI2355
F0.00029231218941829873
sI308
F0.00058462437883659746
sI309
F0.00058462437883659746
sI10550
F0.00029231218941829873
sI316
F0.00029231218941829873
sI318
F0.00029231218941829873
sI319
F0.0011692487576731949
sI2368
F0.00029231218941829873
sI324
F0.00029231218941829873
sI328
F0.00029231218941829873
sI330
F0.00029231218941829873
sI332
F0.00029231218941829873
sI333
F0.00029231218941829873
sI336
F0.00029231218941829873
sI2105
F0.00029231218941829873
sI344
F0.00058462437883659746
sI347
F0.00058462437883659746
sI353
F0.00029231218941829873
sI355
F0.00029231218941829873
sI356
F0.00029231218941829873
sI358
F0.00029231218941829873
sI363
F0.00029231218941829873
sI4461
F0.00029231218941829873
sI367
F0.00029231218941829873
sI373
F0.00029231218941829873
sI375
F0.00029231218941829873
sI376
F0.00029231218941829873
sI380
F0.00029231218941829873
sI382
F0.00029231218941829873
sI383
F0.00058462437883659746
sI385
F0.00029231218941829873
sI388
F0.00029231218941829873
sI390
F0.00029231218941829873
sI394
F0.00029231218941829873
sI397
F0.00029231218941829873
sI16790
F0.00029231218941829873
sI2116
F0.00029231218941829873
sI410
F0.00029231218941829873
sI422
F0.00029231218941829873
sI426
F0.00058462437883659746
sI430
F0.00029231218941829873
sI431
F0.00029231218941829873
sI433
F0.00029231218941829873
sI436
F0.00029231218941829873
sI437
F0.00029231218941829873
sI438
F0.00029231218941829873
sI2487
F0.00029231218941829873
sI442
F0.00029231218941829873
sI447
F0.00029231218941829873
sI2496
F0.00029231218941829873
sI450
F0.00029231218941829873
sI75
F0.0011692487576731949
sI452
F0.00029231218941829873
sI455
F0.00029231218941829873
sI457
F0.00029231218941829873
sI459
F0.00029231218941829873
sI462
F0.00029231218941829873
sI2511
F0.00029231218941829873
sI2516
F0.00029231218941829873
sI471
F0.00029231218941829873
sI475
F0.00029231218941829873
sI476
F0.00058462437883659746
sI80
F0.00029231218941829873
sI490
F0.00058462437883659746
sI492
F0.00029231218941829873
sI493
F0.00029231218941829873
sI498
F0.00029231218941829873
sI499
F0.00029231218941829873
sI500
F0.00029231218941829873
sI2549
F0.00029231218941829873
sI14845
F0.00029231218941829873
sI510
F0.00029231218941829873
sI512
F0.00029231218941829873
sI513
F0.00029231218941829873
sI4612
F0.00029231218941829873
sI517
F0.00029231218941829873
sI529
F0.00029231218941829873
sI8736
F0.00029231218941829873
sI547
F0.00029231218941829873
sI551
F0.00029231218941829873
sI566
F0.00029231218941829873
sI572
F0.00029231218941829873
sI575
F0.00058462437883659746
sI584
F0.00058462437883659746
sI585
F0.00029231218941829873
sI586
F0.00029231218941829873
sI588
F0.00029231218941829873
sI593
F0.00029231218941829873
sI597
F0.00029231218941829873
sI12889
F0.00029231218941829873
sI2660
F0.00058462437883659746
sI2666
F0.00029231218941829873
sI622
F0.00029231218941829873
sI627
F0.00029231218941829873
sI628
F0.00029231218941829873
sI632
F0.00029231218941829873
sI637
F0.00029231218941829873
sI643
F0.00029231218941829873
sI650
F0.00029231218941829873
sI26050
F0.00029231218941829873
sI673
F0.00029231218941829873
sI2727
F0.00029231218941829873
sI6829
F0.00029231218941829873
sI687
F0.00029231218941829873
sI701
F0.00029231218941829873
sI2750
F0.00029231218941829873
sI2760
F0.00029231218941829873
sI714
F0.00029231218941829873
sI724
F0.00029231218941829873
sI4558
F0.00029231218941829873
sI53977
F0.00029231218941829873
sI737
F0.00029231218941829873
sI4849
F0.00029231218941829873
sI2804
F0.00029231218941829873
sI768
F0.00029231218941829873
sI2819
F0.00058462437883659746
sI778
F0.00029231218941829873
sI784
F0.00029231218941829873
sI789
F0.00058462437883659746
sI794
F0.00029231218941829873
sI796
F0.00029231218941829873
sI805
F0.00029231218941829873
sI807
F0.00058462437883659746
sI819
F0.00058462437883659746
sI821
F0.00029231218941829873
sI2874
F0.00029231218941829873
sI857
F0.00029231218941829873
sI860
F0.00029231218941829873
sI864
F0.00029231218941829873
sI2913
F0.00029231218941829873
sI867
F0.00029231218941829873
sI145
F0.00029231218941829873
sI877
F0.00029231218941829873
sI878
F0.00029231218941829873
sI887
F0.00029231218941829873
sI900
F0.00029231218941829873
sI2485
F0.00029231218941829873
sI911
F0.00029231218941829873
sI915
F0.00029231218941829873
sI927
F0.00029231218941829873
sI939
F0.00029231218941829873
sI950
F0.00029231218941829873
sI8215
F0.00029231218941829873
sI963
F0.00029231218941829873
sI970
F0.00029231218941829873
sI976
F0.00029231218941829873
sI993
F0.00029231218941829873
sI1001
F0.00087693656825489619
sI3066
F0.00029231218941829873
sI5117
F0.00029231218941829873
sI1024
F0.00029231218941829873
sI1034
F0.00029231218941829873
sI1057
F0.00029231218941829873
sI1060
F0.00029231218941829873
sI1081
F0.00029231218941829873
sI2229
F0.00029231218941829873
sI1092
F0.00029231218941829873
sI1126
F0.00029231218941829873
sI1142
F0.00029231218941829873
sI1144
F0.00029231218941829873
sI1151
F0.00029231218941829873
sI3201
F0.00029231218941829873
sI1159
F0.00029231218941829873
sI1161
F0.00029231218941829873
sI17569
F0.00029231218941829873
sI1196
F0.00029231218941829873
sI1205
F0.00058462437883659746
sI3274
F0.00029231218941829873
sI7370
F0.00029231218941829873
sI1249
F0.00029231218941829873
sI1256
F0.00029231218941829873
sI1258
F0.00029231218941829873
sI1267
F0.00029231218941829873
sI21756
F0.00029231218941829873
sI1327
F0.00029231218941829873
sI7482
F0.00029231218941829873
sI1376
F0.00029231218941829873
sI1404
F0.00029231218941829873
sI3454
F0.00029231218941829873
sI1417
F0.00029231218941829873
sI3468
F0.00029231218941829873
sI25999
F0.00029231218941829873
sI9628
F0.00029231218941829873
sI1443
F0.00029231218941829873
sI1447
F0.00029231218941829873
sI3519
F0.00029231218941829873
sI1474
F0.00029231218941829873
sI6392
F0.00029231218941829873
sI3542
F0.00029231218941829873
sI2298
F0.00029231218941829873
sI1516
F0.00029231218941829873
sI1525
F0.00029231218941829873
sI50694
F0.00029231218941829873
sI2056
F0.00029231218941829873
sI1582
F0.00029231218941829873
sI1586
F0.00029231218941829873
sI3640
F0.00029231218941829873
sI1599
F0.00029231218941829873
sI612
F0.00029231218941829873
sI5725
F0.00029231218941829873
sI1679
F0.00029231218941829873
sI1684
F0.00029231218941829873
sI9877
F0.00029231218941829873
sI1691
F0.00029231218941829873
sI3745
F0.00029231218941829873
sI3747
F0.00029231218941829873
sI1726
F0.00029231218941829873
sI1731
F0.00029231218941829873
sI1763
F0.00029231218941829873
sI3829
F0.00029231218941829873
sI5880
F0.00029231218941829873
sI1788
F0.00029231218941829873
sI3844
F0.00029231218941829873
sI6163
F0.00029231218941829873
sI7947
F0.00029231218941829873
sI1814
F0.00058462437883659746
sI1837
F0.00029231218941829873
sI307
F0.00029231218941829873
sI1846
F0.00029231218941829873
sI1851
F0.00029231218941829873
sI36675
F0.00029231218941829873
sI4406
F0.00029231218941829873
sI1862
F0.00029231218941829873
sI1338
F0.00029231218941829873
sI1899
F0.00029231218941829873
sI4008
F0.00029231218941829873
sI1965
F0.00029231218941829873
sI16316
F0.00029231218941829873
sI4054
F0.00029231218941829873
sI4432
F0.00029231218941829873
sag2
(g3
tRp5
I0
F0.21384733410049866
sI1
F0.098772535481396237
sI2
F0.063291139240506333
sI3
F0.046413502109704644
sI4
F0.037591100882240124
sI5
F0.025700038358266206
sI6
F0.023206751054852322
sI7
F0.019946298427311087
sI8
F0.014576141158419639
sI9
F0.016302263137706177
sI10
F0.018411967779056387
sI11
F0.011891062523973917
sI12
F0.014384349827387802
sI13
F0.010356731875719217
sI14
F0.011315688530878405
sI15
F0.010740314537782892
sI16
F0.0088224012274645183
sI17
F0.0072880705792098197
sI18
F0.0065209052550824704
sI19
F0.0065209052550824704
sI20
F0.0063291139240506328
sI21
F0.0069044879171461446
sI22
F0.0065209052550824704
sI23
F0.0059455312619869586
sI24
F0.0092059838895281933
sI25
F0.0065209052550824704
sI26
F0.0044112006137322591
sI27
F0.0046029919447640967
sI28
F0.0055619485999232835
sI29
F0.0051783659378596084
sI30
F0.0042194092827004216
sI31
F0.002685078634445723
sI32
F0.0030686612965093976
sI33
F0.0038358266206367474
sI34
F0.002685078634445723
sI35
F0.0040276179516685849
sI36
F0.0024932873034138859
sI37
F0.0032604526275412352
sI38
F0.0021097046413502108
sI39
F0.0030686612965093976
sI40
F0.0028768699654775605
sI41
F0.0017261219792865361
sI42
F0.0019179133103183737
sI43
F0.0023014959723820483
sI44
F0.0019179133103183737
sI45
F0.0023014959723820483
sI46
F0.0028768699654775605
sI47
F0.0019179133103183737
sI48
F0.0034522439585730723
sI49
F0.002685078634445723
sI50
F0.0019179133103183737
sI51
F0.0019179133103183737
sI52
F0.0019179133103183737
sI53
F0.0028768699654775605
sI54
F0.0013425393172228615
sI55
F0.0017261219792865361
sI56
F0.0017261219792865361
sI57
F0.0017261219792865361
sI58
F0.00076716532412734941
sI59
F0.0021097046413502108
sI60
F0.0024932873034138859
sI61
F0.0021097046413502108
sI62
F0.0019179133103183737
sI63
F0.0021097046413502108
sI64
F0.0011507479861910242
sI65
F0.0011507479861910242
sI4162
F0.00019179133103183735
sI67
F0.0017261219792865361
sI68
F0.00095895665515918684
sI69
F0.0017261219792865361
sI70
F0.0017261219792865361
sI71
F0.0011507479861910242
sI72
F0.00095895665515918684
sI73
F0.0011507479861910242
sI74
F0.0015343306482546988
sI10315
F0.00019179133103183735
sI76
F0.0013425393172228615
sI77
F0.0011507479861910242
sI78
F0.0013425393172228615
sI79
F0.0011507479861910242
sI80
F0.0003835826620636747
sI81
F0.00057537399309551208
sI82
F0.00057537399309551208
sI83
F0.00095895665515918684
sI84
F0.00019179133103183735
sI85
F0.00095895665515918684
sI86
F0.00095895665515918684
sI87
F0.0011507479861910242
sI88
F0.0011507479861910242
sI89
F0.00076716532412734941
sI90
F0.00019179133103183735
sI91
F0.00076716532412734941
sI92
F0.00095895665515918684
sI93
F0.0003835826620636747
sI94
F0.00019179133103183735
sI95
F0.00057537399309551208
sI96
F0.00076716532412734941
sI97
F0.00095895665515918684
sI98
F0.00057537399309551208
sI99
F0.00019179133103183735
sI100
F0.00076716532412734941
sI101
F0.00095895665515918684
sI102
F0.0013425393172228615
sI103
F0.0003835826620636747
sI104
F0.00057537399309551208
sI105
F0.00019179133103183735
sI106
F0.0003835826620636747
sI107
F0.00076716532412734941
sI108
F0.0003835826620636747
sI109
F0.00076716532412734941
sI110
F0.00057537399309551208
sI111
F0.00076716532412734941
sI112
F0.0003835826620636747
sI113
F0.00019179133103183735
sI114
F0.00057537399309551208
sI115
F0.0003835826620636747
sI116
F0.00095895665515918684
sI117
F0.00019179133103183735
sI118
F0.00057537399309551208
sI119
F0.0011507479861910242
sI120
F0.00076716532412734941
sI121
F0.00095895665515918684
sI122
F0.0003835826620636747
sI123
F0.00095895665515918684
sI124
F0.0003835826620636747
sI125
F0.00076716532412734941
sI126
F0.00095895665515918684
sI127
F0.00057537399309551208
sI128
F0.00057537399309551208
sI129
F0.00057537399309551208
sI130
F0.0003835826620636747
sI131
F0.00076716532412734941
sI132
F0.0003835826620636747
sI133
F0.00095895665515918684
sI134
F0.00076716532412734941
sI135
F0.00076716532412734941
sI136
F0.0003835826620636747
sI137
F0.00019179133103183735
sI138
F0.0003835826620636747
sI139
F0.00095895665515918684
sI140
F0.0013425393172228615
sI141
F0.0013425393172228615
sI142
F0.00095895665515918684
sI143
F0.0003835826620636747
sI144
F0.00057537399309551208
sI145
F0.00019179133103183735
sI146
F0.00019179133103183735
sI147
F0.0003835826620636747
sI148
F0.00057537399309551208
sI149
F0.00057537399309551208
sI150
F0.0011507479861910242
sI151
F0.0003835826620636747
sI152
F0.00076716532412734941
sI153
F0.0003835826620636747
sI155
F0.0003835826620636747
sI156
F0.00076716532412734941
sI157
F0.00019179133103183735
sI158
F0.00019179133103183735
sI709
F0.00019179133103183735
sI160
F0.00076716532412734941
sI161
F0.00057537399309551208
sI162
F0.0003835826620636747
sI163
F0.0003835826620636747
sI164
F0.0003835826620636747
sI165
F0.0003835826620636747
sI166
F0.00019179133103183735
sI167
F0.00019179133103183735
sI168
F0.00057537399309551208
sI8362
F0.00019179133103183735
sI171
F0.0003835826620636747
sI172
F0.00019179133103183735
sI173
F0.0003835826620636747
sI174
F0.00019179133103183735
sI175
F0.00019179133103183735
sI177
F0.0003835826620636747
sI178
F0.00019179133103183735
sI179
F0.0003835826620636747
sI180
F0.00019179133103183735
sI181
F0.00076716532412734941
sI182
F0.0003835826620636747
sI183
F0.0003835826620636747
sI184
F0.00019179133103183735
sI185
F0.00076716532412734941
sI186
F0.00019179133103183735
sI187
F0.00019179133103183735
sI188
F0.0003835826620636747
sI190
F0.00019179133103183735
sI191
F0.00057537399309551208
sI192
F0.00057537399309551208
sI193
F0.00019179133103183735
sI195
F0.00057537399309551208
sI196
F0.00057537399309551208
sI197
F0.00019179133103183735
sI199
F0.00095895665515918684
sI200
F0.0003835826620636747
sI201
F0.0011507479861910242
sI202
F0.00057537399309551208
sI204
F0.00019179133103183735
sI205
F0.0003835826620636747
sI208
F0.00019179133103183735
sI209
F0.00019179133103183735
sI210
F0.00019179133103183735
sI211
F0.0003835826620636747
sI212
F0.00019179133103183735
sI213
F0.00019179133103183735
sI214
F0.00095895665515918684
sI215
F0.00057537399309551208
sI216
F0.00076716532412734941
sI217
F0.00057537399309551208
sI218
F0.00057537399309551208
sI219
F0.00019179133103183735
sI220
F0.0003835826620636747
sI221
F0.00019179133103183735
sI222
F0.00057537399309551208
sI223
F0.00057537399309551208
sI224
F0.00019179133103183735
sI225
F0.00019179133103183735
sI226
F0.00019179133103183735
sI227
F0.00019179133103183735
sI228
F0.0003835826620636747
sI229
F0.00057537399309551208
sI230
F0.00019179133103183735
sI234
F0.00019179133103183735
sI236
F0.00019179133103183735
sI238
F0.0003835826620636747
sI239
F0.0003835826620636747
sI4336
F0.00019179133103183735
sI241
F0.0003835826620636747
sI243
F0.00019179133103183735
sI4340
F0.00019179133103183735
sI246
F0.00019179133103183735
sI248
F0.00019179133103183735
sI249
F0.00019179133103183735
sI250
F0.00019179133103183735
sI252
F0.00019179133103183735
sI253
F0.00019179133103183735
sI254
F0.00019179133103183735
sI258
F0.00019179133103183735
sI259
F0.00019179133103183735
sI261
F0.0003835826620636747
sI263
F0.0003835826620636747
sI266
F0.00057537399309551208
sI267
F0.00019179133103183735
sI268
F0.00057537399309551208
sI270
F0.0003835826620636747
sI272
F0.00019179133103183735
sI273
F0.0003835826620636747
sI274
F0.00057537399309551208
sI275
F0.00095895665515918684
sI276
F0.00057537399309551208
sI279
F0.00019179133103183735
sI280
F0.0003835826620636747
sI281
F0.0003835826620636747
sI282
F0.00057537399309551208
sI283
F0.0003835826620636747
sI288
F0.0003835826620636747
sI290
F0.00019179133103183735
sI291
F0.00019179133103183735
sI293
F0.00019179133103183735
sI295
F0.00019179133103183735
sI298
F0.00019179133103183735
sI299
F0.00019179133103183735
sI302
F0.00057537399309551208
sI304
F0.0003835826620636747
sI305
F0.00019179133103183735
sI306
F0.00019179133103183735
sI12339
F0.00019179133103183735
sI308
F0.00019179133103183735
sI309
F0.00019179133103183735
sI310
F0.00019179133103183735
sI2360
F0.00019179133103183735
sI313
F0.00019179133103183735
sI314
F0.0003835826620636747
sI315
F0.00019179133103183735
sI4414
F0.00019179133103183735
sI2367
F0.00019179133103183735
sI321
F0.0003835826620636747
sI323
F0.00019179133103183735
sI325
F0.0003835826620636747
sI326
F0.00019179133103183735
sI327
F0.00019179133103183735
sI4424
F0.00019179133103183735
sI329
F0.00057537399309551208
sI330
F0.00019179133103183735
sI8523
F0.00019179133103183735
sI332
F0.00019179133103183735
sI334
F0.0003835826620636747
sI684
F0.00019179133103183735
sI339
F0.0003835826620636747
sI341
F0.00019179133103183735
sI343
F0.00019179133103183735
sI344
F0.00019179133103183735
sI4441
F0.00019179133103183735
sI347
F0.0003835826620636747
sI349
F0.00019179133103183735
sI350
F0.00019179133103183735
sI352
F0.0003835826620636747
sI354
F0.00019179133103183735
sI357
F0.00019179133103183735
sI362
F0.0003835826620636747
sI363
F0.0003835826620636747
sI366
F0.00019179133103183735
sI368
F0.0003835826620636747
sI6514
F0.00019179133103183735
sI371
F0.00019179133103183735
sI374
F0.0003835826620636747
sI2424
F0.00019179133103183735
sI379
F0.00019179133103183735
sI380
F0.00019179133103183735
sI4477
F0.00019179133103183735
sI383
F0.00019179133103183735
sI385
F0.00019179133103183735
sI388
F0.0003835826620636747
sI391
F0.00019179133103183735
sI392
F0.00019179133103183735
sI397
F0.00019179133103183735
sI399
F0.0003835826620636747
sI401
F0.00019179133103183735
sI402
F0.00019179133103183735
sI407
F0.00019179133103183735
sI408
F0.00019179133103183735
sI409
F0.00019179133103183735
sI411
F0.00019179133103183735
sI412
F0.00057537399309551208
sI2461
F0.00019179133103183735
sI2462
F0.00019179133103183735
sI415
F0.00019179133103183735
sI416
F0.0003835826620636747
sI417
F0.00019179133103183735
sI24994
F0.00019179133103183735
sI419
F0.00019179133103183735
sI420
F0.00019179133103183735
sI422
F0.0003835826620636747
sI423
F0.0003835826620636747
sI426
F0.0003835826620636747
sI427
F0.00057537399309551208
sI428
F0.00057537399309551208
sI413
F0.00019179133103183735
sI434
F0.00057537399309551208
sI437
F0.00019179133103183735
sI439
F0.00019179133103183735
sI440
F0.00019179133103183735
sI442
F0.00019179133103183735
sI443
F0.0003835826620636747
sI444
F0.00019179133103183735
sI445
F0.00019179133103183735
sI446
F0.00019179133103183735
sI448
F0.00019179133103183735
sI75
F0.00076716532412734941
sI453
F0.00019179133103183735
sI455
F0.00019179133103183735
sI457
F0.00019179133103183735
sI459
F0.00019179133103183735
sI460
F0.00019179133103183735
sI418
F0.00019179133103183735
sI462
F0.0003835826620636747
sI464
F0.0003835826620636747
sI467
F0.00019179133103183735
sI469
F0.00019179133103183735
sI475
F0.00019179133103183735
sI478
F0.00019179133103183735
sI479
F0.00019179133103183735
sI483
F0.0003835826620636747
sI8677
F0.00019179133103183735
sI486
F0.00019179133103183735
sI487
F0.00019179133103183735
sI488
F0.00019179133103183735
sI490
F0.00019179133103183735
sI6563
F0.00019179133103183735
sI496
F0.00019179133103183735
sI499
F0.00019179133103183735
sI500
F0.00019179133103183735
sI2550
F0.00019179133103183735
sI508
F0.0003835826620636747
sI509
F0.00019179133103183735
sI512
F0.00019179133103183735
sI516
F0.00019179133103183735
sI517
F0.0003835826620636747
sI526
F0.0003835826620636747
sI4623
F0.00019179133103183735
sI530
F0.00019179133103183735
sI10298
F0.00019179133103183735
sI532
F0.00019179133103183735
sI535
F0.00019179133103183735
sI431
F0.00019179133103183735
sI4641
F0.00019179133103183735
sI548
F0.00019179133103183735
sI550
F0.00019179133103183735
sI4188
F0.00019179133103183735
sI2605
F0.00019179133103183735
sI559
F0.00019179133103183735
sI560
F0.0003835826620636747
sI561
F0.00019179133103183735
sI562
F0.00019179133103183735
sI564
F0.0003835826620636747
sI565
F0.00019179133103183735
sI2616
F0.00019179133103183735
sI570
F0.0003835826620636747
sI572
F0.00019179133103183735
sI575
F0.00019179133103183735
sI53824
F0.00019179133103183735
sI578
F0.00019179133103183735
sI2630
F0.00019179133103183735
sI584
F0.00019179133103183735
sI588
F0.00019179133103183735
sI589
F0.00019179133103183735
sI590
F0.00019179133103183735
sI2640
F0.00019179133103183735
sI593
F0.00019179133103183735
sI595
F0.0003835826620636747
sI596
F0.00019179133103183735
sI599
F0.00019179133103183735
sI604
F0.00019179133103183735
sI605
F0.00019179133103183735
sI611
F0.00019179133103183735
sI616
F0.00019179133103183735
sI617
F0.00019179133103183735
sI618
F0.0003835826620636747
sI622
F0.00019179133103183735
sI625
F0.00019179133103183735
sI626
F0.00019179133103183735
sI627
F0.00019179133103183735
sI345
F0.0003835826620636747
sI639
F0.00019179133103183735
sI646
F0.00019179133103183735
sI2696
F0.00019179133103183735
sI653
F0.00019179133103183735
sI654
F0.00019179133103183735
sI451
F0.00019179133103183735
sI660
F0.00019179133103183735
sI662
F0.00019179133103183735
sI6811
F0.00019179133103183735
sI670
F0.00019179133103183735
sI671
F0.00019179133103183735
sI672
F0.00019179133103183735
sI678
F0.00019179133103183735
sI2732
F0.00019179133103183735
sI688
F0.00019179133103183735
sI2737
F0.00019179133103183735
sI697
F0.00019179133103183735
sI699
F0.00019179133103183735
sI700
F0.00019179133103183735
sI707
F0.00019179133103183735
sI2757
F0.00019179133103183735
sI8903
F0.00019179133103183735
sI728
F0.00019179133103183735
sI2778
F0.00019179133103183735
sI731
F0.00019179133103183735
sI734
F0.0003835826620636747
sI739
F0.00019179133103183735
sI502
F0.00019179133103183735
sI748
F0.00019179133103183735
sI752
F0.00019179133103183735
sI2802
F0.00019179133103183735
sI2824
F0.00019179133103183735
sI777
F0.00019179133103183735
sI1155
F0.00019179133103183735
sI794
F0.00019179133103183735
sI802
F0.00019179133103183735
sI2852
F0.00019179133103183735
sI2853
F0.00019179133103183735
sI810
F0.00019179133103183735
sI3207
F0.00019179133103183735
sI817
F0.00019179133103183735
sI4914
F0.00019179133103183735
sI825
F0.00019179133103183735
sI827
F0.00019179133103183735
sI832
F0.00019179133103183735
sI6985
F0.00019179133103183735
sI846
F0.00019179133103183735
sI848
F0.00019179133103183735
sI849
F0.00019179133103183735
sI852
F0.00019179133103183735
sI4950
F0.00019179133103183735
sI2906
F0.00019179133103183735
sI871
F0.0003835826620636747
sI711
F0.00019179133103183735
sI882
F0.00019179133103183735
sI2195
F0.00019179133103183735
sI888
F0.00019179133103183735
sI895
F0.00019179133103183735
sI897
F0.00019179133103183735
sI4995
F0.00019179133103183735
sI909
F0.00019179133103183735
sI493
F0.00019179133103183735
sI915
F0.00019179133103183735
sI5614
F0.00019179133103183735
sI2201
F0.00019179133103183735
sI922
F0.00019179133103183735
sI925
F0.00019179133103183735
sI5029
F0.00019179133103183735
sI945
F0.00019179133103183735
sI953
F0.00019179133103183735
sI959
F0.00019179133103183735
sI961
F0.00019179133103183735
sI13671
F0.00019179133103183735
sI2146
F0.00019179133103183735
sI7116
F0.00019179133103183735
sI978
F0.00019179133103183735
sI5075
F0.00019179133103183735
sI984
F0.00019179133103183735
sI19424
F0.00019179133103183735
sI5089
F0.00019179133103183735
sI1002
F0.0003835826620636747
sI1005
F0.00019179133103183735
sI3056
F0.00019179133103183735
sI3059
F0.00019179133103183735
sI1012
F0.00019179133103183735
sI170
F0.0003835826620636747
sI1023
F0.00019179133103183735
sI1028
F0.00019179133103183735
sI1036
F0.00019179133103183735
sI42000
F0.00019179133103183735
sI2565
F0.00019179133103183735
sI1057
F0.00019179133103183735
sI2225
F0.00019179133103183735
sI10333
F0.00019179133103183735
sI1084
F0.00019179133103183735
sI1099
F0.00019179133103183735
sI1110
F0.00019179133103183735
sI2233
F0.00019179133103183735
sI3162
F0.00019179133103183735
sI4283
F0.00019179133103183735
sI3174
F0.00019179133103183735
sI1127
F0.00019179133103183735
sI1131
F0.00019179133103183735
sI1132
F0.00019179133103183735
sI2152
F0.00019179133103183735
sI3194
F0.00019179133103183735
sI9347
F0.00019179133103183735
sI1157
F0.00019179133103183735
sI1159
F0.00019179133103183735
sI5257
F0.00019179133103183735
sI1171
F0.00019179133103183735
sI878
F0.00019179133103183735
sI1179
F0.00019179133103183735
sI1181
F0.00019179133103183735
sI3235
F0.00019179133103183735
sI1267
F0.00019179133103183735
sI1199
F0.00019179133103183735
sI1203
F0.00019179133103183735
sI1209
F0.00019179133103183735
sI1226
F0.00019179133103183735
sI1227
F0.00019179133103183735
sI1228
F0.00019179133103183735
sI1235
F0.00019179133103183735
sI1243
F0.00019179133103183735
sI3302
F0.00019179133103183735
sI3312
F0.00019179133103183735
sI3314
F0.00019179133103183735
sI6355
F0.00019179133103183735
sI1268
F0.00019179133103183735
sI7416
F0.00019179133103183735
sI1275
F0.00019179133103183735
sI1285
F0.00019179133103183735
sI1288
F0.00019179133103183735
sI1306
F0.00019179133103183735
sI7453
F0.00019179133103183735
sI1312
F0.00019179133103183735
sI1313
F0.00019179133103183735
sI3367
F0.00019179133103183735
sI2268
F0.00019179133103183735
sI1325
F0.00019179133103183735
sI23890
F0.00019179133103183735
sI318
F0.00019179133103183735
sI1376
F0.00019179133103183735
sI1383
F0.00019179133103183735
sI1386
F0.00019179133103183735
sI3435
F0.00019179133103183735
sI1403
F0.00019179133103183735
sI9597
F0.00019179133103183735
sI1421
F0.00019179133103183735
sI3479
F0.00019179133103183735
sI1433
F0.00019179133103183735
sI3485
F0.00019179133103183735
sI9631
F0.00019179133103183735
sI1443
F0.00019179133103183735
sI582
F0.00019179133103183735
sI1449
F0.00019179133103183735
sI5553
F0.00019179133103183735
sI1459
F0.00019179133103183735
sI244
F0.00019179133103183735
sI3524
F0.00019179133103183735
sI5587
F0.00019179133103183735
sI17881
F0.00019179133103183735
sI1507
F0.00019179133103183735
sI1514
F0.00019179133103183735
sI1518
F0.00019179133103183735
sI5618
F0.00019179133103183735
sI5620
F0.00019179133103183735
sI7700
F0.00019179133103183735
sI1559
F0.00019179133103183735
sI1560
F0.00019179133103183735
sI1578
F0.00019179133103183735
sI1586
F0.00019179133103183735
sI1596
F0.00019179133103183735
sI1600
F0.00019179133103183735
sI12465
F0.00019179133103183735
sI1612
F0.00019179133103183735
sI2782
F0.00019179133103183735
sI1642
F0.00019179133103183735
sI7796
F0.00019179133103183735
sI26235
F0.00019179133103183735
sI1671
F0.00019179133103183735
sI38536
F0.00019179133103183735
sI1675
F0.00019179133103183735
sI24206
F0.00019179133103183735
sI22159
F0.00019179133103183735
sI3752
F0.00019179133103183735
sI1710
F0.00019179133103183735
sI3765
F0.00019179133103183735
sI1719
F0.00019179133103183735
sI1720
F0.00019179133103183735
sI14022
F0.00019179133103183735
sI972
F0.0003835826620636747
sI1745
F0.00019179133103183735
sI1747
F0.00019179133103183735
sI7923
F0.00019179133103183735
sI1782
F0.00019179133103183735
sI14077
F0.00019179133103183735
sI1795
F0.00019179133103183735
sI1799
F0.00019179133103183735
sI1826
F0.00019179133103183735
sI12069
F0.00019179133103183735
sI1672
F0.00019179133103183735
sI307
F0.00019179133103183735
sI1857
F0.00019179133103183735
sI1868
F0.00019179133103183735
sI14197
F0.00019179133103183735
sI319
F0.00019179133103183735
sI1916
F0.00019179133103183735
sI1919
F0.00019179133103183735
sI1923
F0.00019179133103183735
sI1925
F0.00019179133103183735
sI1932
F0.00019179133103183735
sI1937
F0.00019179133103183735
sI328
F0.00019179133103183735
sI4026
F0.00019179133103183735
sI1980
F0.00019179133103183735
sI66
F0.0019179133103183737
sI1999
F0.00019179133103183735
sI2006
F0.00019179133103183735
sI8185
F0.00019179133103183735
sI4065
F0.00019179133103183735
sI2019
F0.00019179133103183735
sI2027
F0.00019179133103183735
sI4089
F0.00019179133103183735
sI2045
F0.00019179133103183735
sag2
(g3
tRp6
I0
F0.22066014669926651
sI1
F0.088019559902200492
sI2
F0.055317848410757944
sI3
F0.034841075794621028
sI4
F0.03147921760391198
sI5
F0.024449877750611249
sI6
F0.02047677261613692
sI7
F0.015281173594132029
sI8
F0.016503667481662591
sI9
F0.015281173594132029
sI10
F0.0097799511002444987
sI11
F0.010085574572127139
sI12
F0.012224938875305624
sI13
F0.0097799511002444987
sI14
F0.0088630806845965762
sI15
F0.008557457212713936
sI16
F0.0094743276283618585
sI17
F0.0051955990220048896
sI18
F0.0076405867970660143
sI19
F0.0055012224938875308
sI20
F0.0064180929095354524
sI21
F0.0045843520782396091
sI22
F0.0076405867970660143
sI23
F0.0048899755501222494
sI24
F0.0070293398533007338
sI6169
F0.00030562347188264059
sI26
F0.0051955990220048896
sI27
F0.003667481662591687
sI28
F0.0045843520782396091
sI29
F0.0048899755501222494
sI30
F0.0039731051344743277
sI31
F0.003667481662591687
sI32
F0.003667481662591687
sI33
F0.0045843520782396091
sI34
F0.0030562347188264061
sI35
F0.0051955990220048896
sI36
F0.0018337408312958435
sI37
F0.0033618581907090463
sI38
F0.004278728606356968
sI39
F0.0027506112469437654
sI40
F0.001528117359413203
sI41
F0.0033618581907090463
sI42
F0.0018337408312958435
sI43
F0.0033618581907090463
sI44
F0.002139364303178484
sI45
F0.0027506112469437654
sI46
F0.0012224938875305623
sI47
F0.0024449877750611247
sI48
F0.0027506112469437654
sI49
F0.0027506112469437654
sI50
F0.0018337408312958435
sI51
F0.0024449877750611247
sI52
F0.0030562347188264061
sI53
F0.0024449877750611247
sI54
F0.002139364303178484
sI55
F0.0024449877750611247
sI2104
F0.00030562347188264059
sI57
F0.001528117359413203
sI58
F0.001528117359413203
sI59
F0.00091687041564792176
sI60
F0.0012224938875305623
sI61
F0.001528117359413203
sI62
F0.0024449877750611247
sI63
F0.001528117359413203
sI64
F0.002139364303178484
sI65
F0.0012224938875305623
sI66
F0.0024449877750611247
sI67
F0.002139364303178484
sI68
F0.0012224938875305623
sI69
F0.0018337408312958435
sI70
F0.0027506112469437654
sI71
F0.0012224938875305623
sI72
F0.00061124694376528117
sI73
F0.001528117359413203
sI74
F0.00091687041564792176
sI75
F0.00061124694376528117
sI76
F0.0018337408312958435
sI77
F0.00061124694376528117
sI78
F0.0018337408312958435
sI79
F0.0012224938875305623
sI80
F0.0012224938875305623
sI2129
F0.00030562347188264059
sI82
F0.0012224938875305623
sI83
F0.00061124694376528117
sI84
F0.0018337408312958435
sI86
F0.00091687041564792176
sI87
F0.00030562347188264059
sI88
F0.00061124694376528117
sI89
F0.00030562347188264059
sI90
F0.00030562347188264059
sI91
F0.001528117359413203
sI93
F0.0012224938875305623
sI95
F0.00091687041564792176
sI96
F0.0018337408312958435
sI97
F0.001528117359413203
sI98
F0.00030562347188264059
sI100
F0.001528117359413203
sI101
F0.00091687041564792176
sI102
F0.00091687041564792176
sI103
F0.00061124694376528117
sI104
F0.00091687041564792176
sI105
F0.00061124694376528117
sI106
F0.00030562347188264059
sI108
F0.0012224938875305623
sI109
F0.00061124694376528117
sI110
F0.001528117359413203
sI111
F0.001528117359413203
sI113
F0.0012224938875305623
sI114
F0.00091687041564792176
sI117
F0.00061124694376528117
sI118
F0.00061124694376528117
sI361
F0.00061124694376528117
sI120
F0.00030562347188264059
sI121
F0.0012224938875305623
sI122
F0.00091687041564792176
sI123
F0.00061124694376528117
sI124
F0.00030562347188264059
sI125
F0.00061124694376528117
sI126
F0.00061124694376528117
sI127
F0.00061124694376528117
sI128
F0.00030562347188264059
sI129
F0.0012224938875305623
sI130
F0.00091687041564792176
sI131
F0.0012224938875305623
sI132
F0.00091687041564792176
sI133
F0.00091687041564792176
sI134
F0.001528117359413203
sI135
F0.0012224938875305623
sI136
F0.0012224938875305623
sI137
F0.0012224938875305623
sI138
F0.00061124694376528117
sI139
F0.00061124694376528117
sI140
F0.00091687041564792176
sI141
F0.00091687041564792176
sI143
F0.00061124694376528117
sI144
F0.00091687041564792176
sI145
F0.00091687041564792176
sI146
F0.00030562347188264059
sI147
F0.00061124694376528117
sI2196
F0.00030562347188264059
sI149
F0.00030562347188264059
sI25
F0.0045843520782396091
sI152
F0.00061124694376528117
sI153
F0.001528117359413203
sI154
F0.00091687041564792176
sI155
F0.00091687041564792176
sI158
F0.00061124694376528117
sI159
F0.00030562347188264059
sI160
F0.00091687041564792176
sI161
F0.00091687041564792176
sI163
F0.0012224938875305623
sI164
F0.00061124694376528117
sI165
F0.00030562347188264059
sI166
F0.00091687041564792176
sI169
F0.00030562347188264059
sI170
F0.00030562347188264059
sI171
F0.00091687041564792176
sI2220
F0.00030562347188264059
sI174
F0.00030562347188264059
sI175
F0.00030562347188264059
sI178
F0.00030562347188264059
sI180
F0.0012224938875305623
sI181
F0.00030562347188264059
sI183
F0.00061124694376528117
sI184
F0.00061124694376528117
sI185
F0.00091687041564792176
sI187
F0.001528117359413203
sI188
F0.00030562347188264059
sI189
F0.00030562347188264059
sI190
F0.00061124694376528117
sI191
F0.00030562347188264059
sI2080
F0.00030562347188264059
sI194
F0.00030562347188264059
sI195
F0.001528117359413203
sI196
F0.0012224938875305623
sI197
F0.00030562347188264059
sI198
F0.00061124694376528117
sI199
F0.00091687041564792176
sI200
F0.00030562347188264059
sI201
F0.00030562347188264059
sI202
F0.00030562347188264059
sI203
F0.00030562347188264059
sI204
F0.00030562347188264059
sI205
F0.0012224938875305623
sI207
F0.00061124694376528117
sI208
F0.00030562347188264059
sI209
F0.00030562347188264059
sI211
F0.0012224938875305623
sI212
F0.00030562347188264059
sI2261
F0.00030562347188264059
sI214
F0.00030562347188264059
sI216
F0.00061124694376528117
sI217
F0.00030562347188264059
sI218
F0.00061124694376528117
sI219
F0.001528117359413203
sI4316
F0.00030562347188264059
sI222
F0.00030562347188264059
sI224
F0.00030562347188264059
sI225
F0.00030562347188264059
sI227
F0.00030562347188264059
sI228
F0.00030562347188264059
sI230
F0.00030562347188264059
sI232
F0.00030562347188264059
sI233
F0.00030562347188264059
sI234
F0.00030562347188264059
sI235
F0.00030562347188264059
sI238
F0.00030562347188264059
sI239
F0.00061124694376528117
sI240
F0.00030562347188264059
sI2289
F0.00030562347188264059
sI242
F0.00091687041564792176
sI243
F0.00030562347188264059
sI244
F0.00030562347188264059
sI245
F0.00030562347188264059
sI247
F0.00030562347188264059
sI20728
F0.00030562347188264059
sI254
F0.00061124694376528117
sI255
F0.00030562347188264059
sI256
F0.00061124694376528117
sI260
F0.0012224938875305623
sI2312
F0.00030562347188264059
sI265
F0.00030562347188264059
sI269
F0.00030562347188264059
sI270
F0.00030562347188264059
sI275
F0.00030562347188264059
sI277
F0.00061124694376528117
sI4374
F0.00030562347188264059
sI2055
F0.00030562347188264059
sI12570
F0.00030562347188264059
sI283
F0.00030562347188264059
sI284
F0.00061124694376528117
sI285
F0.00061124694376528117
sI287
F0.00030562347188264059
sI288
F0.00030562347188264059
sI294
F0.00061124694376528117
sI295
F0.00030562347188264059
sI296
F0.00030562347188264059
sI298
F0.00030562347188264059
sI299
F0.00030562347188264059
sI301
F0.00030562347188264059
sI4399
F0.00030562347188264059
sI307
F0.00061124694376528117
sI311
F0.00030562347188264059
sI2100
F0.00030562347188264059
sI314
F0.00030562347188264059
sI319
F0.00061124694376528117
sI2368
F0.00030562347188264059
sI322
F0.00030562347188264059
sI324
F0.00030562347188264059
sI327
F0.00030562347188264059
sI330
F0.00030562347188264059
sI56
F0.0018337408312958435
sI338
F0.00030562347188264059
sI344
F0.00061124694376528117
sI345
F0.00061124694376528117
sI346
F0.00030562347188264059
sI349
F0.00061124694376528117
sI351
F0.00030562347188264059
sI353
F0.00030562347188264059
sI2107
F0.00030562347188264059
sI2405
F0.00030562347188264059
sI358
F0.00030562347188264059
sI2108
F0.00030562347188264059
sI362
F0.00030562347188264059
sI363
F0.00030562347188264059
sI4461
F0.00030562347188264059
sI366
F0.00061124694376528117
sI29039
F0.00030562347188264059
sI372
F0.00061124694376528117
sI373
F0.00030562347188264059
sI374
F0.0012224938875305623
sI376
F0.00030562347188264059
sI377
F0.00030562347188264059
sI379
F0.00030562347188264059
sI381
F0.00030562347188264059
sI382
F0.00030562347188264059
sI383
F0.00030562347188264059
sI4160
F0.00030562347188264059
sI2795
F0.00030562347188264059
sI393
F0.00030562347188264059
sI397
F0.00030562347188264059
sI398
F0.00030562347188264059
sI399
F0.00061124694376528117
sI403
F0.00030562347188264059
sI2453
F0.00030562347188264059
sI406
F0.00030562347188264059
sI409
F0.00061124694376528117
sI412
F0.00030562347188264059
sI416
F0.00030562347188264059
sI417
F0.00030562347188264059
sI2466
F0.00030562347188264059
sI420
F0.00061124694376528117
sI421
F0.00030562347188264059
sI423
F0.00030562347188264059
sI425
F0.00030562347188264059
sI426
F0.00030562347188264059
sI427
F0.00030562347188264059
sI428
F0.00030562347188264059
sI4526
F0.00030562347188264059
sI435
F0.00030562347188264059
sI436
F0.00030562347188264059
sI438
F0.00030562347188264059
sI10680
F0.00030562347188264059
sI443
F0.00061124694376528117
sI446
F0.00030562347188264059
sI447
F0.00030562347188264059
sI448
F0.00061124694376528117
sI2497
F0.00030562347188264059
sI452
F0.00030562347188264059
sI455
F0.00030562347188264059
sI457
F0.00030562347188264059
sI458
F0.00030562347188264059
sI459
F0.00030562347188264059
sI461
F0.00030562347188264059
sI463
F0.00030562347188264059
sI464
F0.00030562347188264059
sI465
F0.00030562347188264059
sI2517
F0.00030562347188264059
sI472
F0.00030562347188264059
sI474
F0.00061124694376528117
sI475
F0.00030562347188264059
sI480
F0.00030562347188264059
sI2471
F0.00030562347188264059
sI486
F0.00030562347188264059
sI81
F0.001528117359413203
sI488
F0.00030562347188264059
sI489
F0.00061124694376528117
sI491
F0.00030562347188264059
sI10740
F0.00030562347188264059
sI501
F0.00061124694376528117
sI509
F0.00030562347188264059
sI510
F0.00030562347188264059
sI4612
F0.00030562347188264059
sI521
F0.00030562347188264059
sI524
F0.00030562347188264059
sI526
F0.00030562347188264059
sI530
F0.00030562347188264059
sI540
F0.00030562347188264059
sI541
F0.00030562347188264059
sI545
F0.00030562347188264059
sI546
F0.00030562347188264059
sI555
F0.00030562347188264059
sI561
F0.00030562347188264059
sI2612
F0.00030562347188264059
sI567
F0.00030562347188264059
sI571
F0.00030562347188264059
sI572
F0.00030562347188264059
sI576
F0.00030562347188264059
sI577
F0.00030562347188264059
sI578
F0.00030562347188264059
sI581
F0.00030562347188264059
sI582
F0.00030562347188264059
sI586
F0.00030562347188264059
sI589
F0.00030562347188264059
sI2638
F0.00030562347188264059
sI596
F0.00061124694376528117
sI598
F0.00030562347188264059
sI600
F0.00061124694376528117
sI2657
F0.00030562347188264059
sI610
F0.00030562347188264059
sI613
F0.00030562347188264059
sI617
F0.00030562347188264059
sI620
F0.00030562347188264059
sI622
F0.00030562347188264059
sI625
F0.00030562347188264059
sI629
F0.00030562347188264059
sI636
F0.00030562347188264059
sI637
F0.00030562347188264059
sI639
F0.00061124694376528117
sI6788
F0.00030562347188264059
sI646
F0.00030562347188264059
sI649
F0.00030562347188264059
sI653
F0.00030562347188264059
sI17049
F0.00030562347188264059
sI666
F0.00030562347188264059
sI667
F0.00030562347188264059
sI670
F0.00030562347188264059
sI2409
F0.00030562347188264059
sI673
F0.00030562347188264059
sI677
F0.00030562347188264059
sI678
F0.00030562347188264059
sI686
F0.00030562347188264059
sI2737
F0.00030562347188264059
sI691
F0.00030562347188264059
sI700
F0.00030562347188264059
sI705
F0.00030562347188264059
sI8898
F0.00030562347188264059
sI707
F0.00061124694376528117
sI710
F0.00030562347188264059
sI711
F0.00030562347188264059
sI10954
F0.00030562347188264059
sI1143
F0.00030562347188264059
sI718
F0.00030562347188264059
sI719
F0.00030562347188264059
sI721
F0.00030562347188264059
sI722
F0.00030562347188264059
sI724
F0.00030562347188264059
sI726
F0.00030562347188264059
sI735
F0.00030562347188264059
sI736
F0.00030562347188264059
sI2275
F0.00030562347188264059
sI747
F0.00030562347188264059
sI10994
F0.00030562347188264059
sI2804
F0.00030562347188264059
sI23287
F0.00030562347188264059
sI760
F0.00030562347188264059
sI21166
F0.00030562347188264059
sI768
F0.00030562347188264059
sI770
F0.00061124694376528117
sI774
F0.00030562347188264059
sI778
F0.00030562347188264059
sI780
F0.00061124694376528117
sI784
F0.00030562347188264059
sI788
F0.00030562347188264059
sI800
F0.00030562347188264059
sI801
F0.00030562347188264059
sI2850
F0.00030562347188264059
sI803
F0.00030562347188264059
sI805
F0.00030562347188264059
sI811
F0.00030562347188264059
sI813
F0.00030562347188264059
sI824
F0.00030562347188264059
sI825
F0.00030562347188264059
sI834
F0.00030562347188264059
sI2886
F0.00030562347188264059
sI839
F0.00030562347188264059
sI853
F0.00030562347188264059
sI860
F0.00061124694376528117
sI8553
F0.00030562347188264059
sI2192
F0.00030562347188264059
sI867
F0.00030562347188264059
sI870
F0.00030562347188264059
sI21353
F0.00030562347188264059
sI487
F0.00061124694376528117
sI878
F0.00030562347188264059
sI148
F0.00030562347188264059
sI8683
F0.00030562347188264059
sI902
F0.00030562347188264059
sI11144
F0.00030562347188264059
sI906
F0.00030562347188264059
sI151
F0.00030562347188264059
sI7056
F0.00030562347188264059
sI303
F0.00030562347188264059
sI921
F0.00030562347188264059
sI4250
F0.00030562347188264059
sI927
F0.00030562347188264059
sI934
F0.00030562347188264059
sI943
F0.00030562347188264059
sI11188
F0.00030562347188264059
sI4256
F0.00030562347188264059
sI3019
F0.00030562347188264059
sI973
F0.00030562347188264059
sI982
F0.00030562347188264059
sI984
F0.00030562347188264059
sI985
F0.00030562347188264059
sI990
F0.00030562347188264059
sI8357
F0.00030562347188264059
sI992
F0.00030562347188264059
sI995
F0.00030562347188264059
sI997
F0.00030562347188264059
sI1000
F0.00030562347188264059
sI1002
F0.00030562347188264059
sI3053
F0.00030562347188264059
sI3054
F0.00030562347188264059
sI1013
F0.00030562347188264059
sI1016
F0.00030562347188264059
sI1077
F0.00030562347188264059
sI1079
F0.00030562347188264059
sI7879
F0.00030562347188264059
sI3597
F0.00030562347188264059
sI1113
F0.00030562347188264059
sI1140
F0.00030562347188264059
sI3191
F0.00030562347188264059
sI1145
F0.00030562347188264059
sI1159
F0.00030562347188264059
sI5266
F0.00030562347188264059
sI3220
F0.00030562347188264059
sI1176
F0.00030562347188264059
sI5280
F0.00030562347188264059
sI7337
F0.00030562347188264059
sI15547
F0.00030562347188264059
sI4298
F0.00030562347188264059
sI1222
F0.00030562347188264059
sI889
F0.00030562347188264059
sI1244
F0.00030562347188264059
sI7390
F0.00030562347188264059
sI1248
F0.00030562347188264059
sI9441
F0.00030562347188264059
sI5348
F0.00030562347188264059
sI1255
F0.00030562347188264059
sI3311
F0.00030562347188264059
sI3314
F0.00030562347188264059
sI14549
F0.00030562347188264059
sI1290
F0.00030562347188264059
sI1295
F0.00061124694376528117
sI1297
F0.00061124694376528117
sI1299
F0.00030562347188264059
sI13871
F0.00030562347188264059
sI1315
F0.00030562347188264059
sI3369
F0.00030562347188264059
sI1323
F0.00030562347188264059
sI3634
F0.00030562347188264059
sI3375
F0.00030562347188264059
sI1343
F0.00030562347188264059
sI5344
F0.00030562347188264059
sI3400
F0.00030562347188264059
sI13641
F0.00030562347188264059
sI2159
F0.00030562347188264059
sI1357
F0.00030562347188264059
sI4323
F0.00030562347188264059
sI1252
F0.00030562347188264059
sI1382
F0.00030562347188264059
sI5480
F0.00030562347188264059
sI5490
F0.00030562347188264059
sI1399
F0.00030562347188264059
sI1419
F0.00030562347188264059
sI1423
F0.00030562347188264059
sI3480
F0.00030562347188264059
sI1446
F0.00030562347188264059
sI3498
F0.00030562347188264059
sI1452
F0.00030562347188264059
sI925
F0.00030562347188264059
sI3512
F0.00030562347188264059
sI7617
F0.00030562347188264059
sI1478
F0.00030562347188264059
sI5580
F0.00030562347188264059
sI248
F0.00030562347188264059
sI1495
F0.00030562347188264059
sI3549
F0.00030562347188264059
sI5604
F0.00030562347188264059
sI1512
F0.00030562347188264059
sI1519
F0.00030562347188264059
sI1522
F0.00030562347188264059
sI119
F0.00091687041564792176
sI1538
F0.00030562347188264059
sI27222
F0.00030562347188264059
sI3594
F0.00030562347188264059
sI5645
F0.00030562347188264059
sI36369
F0.00030562347188264059
sI1579
F0.00030562347188264059
sI7724
F0.00030562347188264059
sI1583
F0.00030562347188264059
sI1585
F0.00030562347188264059
sI1586
F0.00030562347188264059
sI5683
F0.00030562347188264059
sI3638
F0.00030562347188264059
sI1601
F0.00030562347188264059
sI30278
F0.00030562347188264059
sI2658
F0.00030562347188264059
sI1631
F0.00030562347188264059
sI1638
F0.00030562347188264059
sI11881
F0.00030562347188264059
sI11886
F0.00030562347188264059
sI1652
F0.00030562347188264059
sI278
F0.00030562347188264059
sI1680
F0.00030562347188264059
sI1688
F0.00030562347188264059
sI1184
F0.00030562347188264059
sI3739
F0.00030562347188264059
sI9885
F0.00030562347188264059
sI193
F0.00030562347188264059
sI5803
F0.00030562347188264059
sI6945
F0.00030562347188264059
sI3775
F0.00030562347188264059
sI1734
F0.00030562347188264059
sI1735
F0.00030562347188264059
sI1737
F0.00030562347188264059
sI3363
F0.00030562347188264059
sI3800
F0.00030562347188264059
sI3804
F0.00030562347188264059
sI1786
F0.00030562347188264059
sI264
F0.00061124694376528117
sI1794
F0.00030562347188264059
sI3856
F0.00030562347188264059
sI10011
F0.00030562347188264059
sI3879
F0.00030562347188264059
sI1847
F0.00030562347188264059
sI1857
F0.00030562347188264059
sI1859
F0.00030562347188264059
sI1868
F0.00030562347188264059
sI1871
F0.00030562347188264059
sI1873
F0.00030562347188264059
sI313
F0.00030562347188264059
sI1900
F0.00030562347188264059
sI1902
F0.00030562347188264059
sI6000
F0.00030562347188264059
sI3957
F0.00030562347188264059
sI8061
F0.00030562347188264059
sI1930
F0.00030562347188264059
sI2111
F0.00030562347188264059
sI1963
F0.00030562347188264059
sI1966
F0.00030562347188264059
sI1974
F0.00030562347188264059
sI671
F0.00030562347188264059
sI1987
F0.00030562347188264059
sI2004
F0.00030562347188264059
sI4055
F0.00030562347188264059
sI2008
F0.00030562347188264059
sI4061
F0.00030562347188264059
sI2020
F0.00030562347188264059
sI22586
F0.00030562347188264059
sI2039
F0.00030562347188264059
sI2523
F0.00030562347188264059
sa.