(lp1
ccollections
defaultdict
p2
(c__builtin__
float
p3
tRp4
I0
F126
sI1
F57
sI2
F34
sI3
F22
sI4
F18
sI5
F22
sI6
F12
sI7
F8
sI8
F8
sI9
F16
sI10
F12
sI11
F5
sI12
F9
sI5645
F1
sI14
F6
sI15
F7
sI16
F5
sI17
F3
sI18
F3
sI19
F3
sI20
F3
sI21
F1
sI22
F6
sI23
F3
sI24
F4
sI25
F4
sI26
F3
sI27
F4
sI28
F3
sI29
F1
sI30
F5
sI31
F6
sI32
F1
sI33
F1
sI34
F1
sI35
F3
sI36
F1
sI37
F4
sI38
F1
sI39
F1
sI40
F2
sI41
F1
sI43
F4
sI44
F1
sI45
F1
sI46
F1
sI48
F2
sI49
F5
sI50
F2
sI51
F1
sI52
F2
sI53
F1
sI54
F2
sI57
F1
sI22586
F1
sI2107
F1
sI60
F1
sI61
F1
sI62
F2
sI64
F2
sI65
F1
sI578
F1
sI70
F1
sI71
F1
sI75
F1
sI78
F1
sI13
F7
sI80
F1
sI81
F3
sI82
F1
sI83
F1
sI84
F2
sI86
F1
sI87
F1
sI1113
F1
sI719
F1
sI95
F1
sI610
F1
sI100
F1
sI101
F1
sI103
F1
sI105
F1
sI106
F1
sI620
F1
sI110
F1
sI6163
F1
sI1652
F1
sI119
F2
sI122
F1
sI126
F1
sI128
F1
sI129
F1
sI130
F1
sI136
F2
sI137
F1
sI653
F2
sI142
F1
sI143
F1
sI2192
F1
sI145
F2
sI146
F1
sI147
F1
sI148
F1
sI878
F1
sI1688
F1
sI155
F1
sI9885
F1
sI670
F1
sI4256
F1
sI161
F1
sI164
F1
sI169
F1
sI177
F1
sI184
F1
sI4283
F1
sI8898
F1
sI2757
F1
sI7879
F1
sI201
F1
sI4298
F1
sI718
F1
sI207
F2
sI58
F1
sI212
F1
sI14549
F1
sI726
F1
sI217
F1
sI219
F2
sI3194
F1
sI211
F1
sI245
F1
sI760
F1
sI7724
F1
sI1290
F1
sI267
F1
sI273
F1
sI275
F1
sI1814
F1
sI2737
F1
sI285
F1
sI6945
F1
sI3363
F1
sI298
F1
sI1586
F1
sI4061
F1
sI307
F1
sI821
F1
sI1847
F1
sI825
F1
sI141
F1
sI349
F2
sI353
F2
sI5480
F1
sI1902
F1
sI1512
F1
sI372
F1
sI376
F1
sI5683
F1
sI3454
F1
sI906
F1
sI66
F1
sI925
F1
sI927
F1
sI2466
F1
sI426
F1
sI427
F1
sI1966
F1
sI5280
F1
sI1987
F1
sI11881
F1
sI469
F1
sI474
F1
sI3549
F1
sI487
F1
sI488
F1
sI491
F1
sI1522
F1
sI2039
F1
sI1016
F1
sag2
(g3
tRp5
I0
F530
sI1
F201
sI2
F122
sI3
F81
sI4
F54
sI5
F41
sI6
F34
sI7
F17
sI8
F30
sI9
F27
sI10
F15
sI11
F20
sI12
F16
sI13
F19
sI14
F13
sI15
F9
sI16
F12
sI17
F7
sI18
F11
sI19
F10
sI20
F7
sI21
F5
sI22
F8
sI23
F9
sI24
F11
sI25
F2
sI26
F5
sI27
F5
sI28
F3
sI541
F1
sI30
F10
sI31
F2
sI32
F2
sI33
F2
sI34
F6
sI35
F1
sI632
F1
sI37
F5
sI38
F9
sI39
F2
sI40
F2
sI41
F4
sI42
F2
sI43
F2
sI44
F2
sI45
F2
sI46
F4
sI47
F5
sI48
F5
sI49
F1
sI50
F3
sI51
F3
sI52
F2
sI53
F2
sI54
F3
sI55
F1
sI56
F1
sI57
F3
sI58
F1
sI59
F2
sI2108
F1
sI1034
F1
sI62
F1
sI63
F4
sI64
F4
sI577
F1
sI66
F1
sI67
F3
sI1092
F1
sI581
F1
sI30278
F1
sI71
F2
sI72
F2
sI73
F3
sI76
F4
sI589
F1
sI78
F1
sI79
F1
sI80
F3
sI81
F1
sI82
F1
sI83
F2
sI84
F1
sI85
F1
sI86
F1
sI105
F1
sI600
F1
sI100
F1
sI90
F1
sI91
F2
sI92
F2
sI93
F1
sI96
F1
sI2660
F1
sI613
F1
sI102
F1
sI103
F2
sI104
F3
sI700
F1
sI108
F2
sI109
F2
sI11886
F1
sI111
F2
sI113
F1
sI36369
F1
sI117
F2
sI118
F1
sI361
F2
sI1144
F1
sI121
F1
sI122
F1
sI124
F2
sI126
F1
sI128
F1
sI643
F1
sI132
F1
sI133
F1
sI134
F3
sI135
F2
sI136
F4
sI137
F1
sI139
F1
sI143
F1
sI144
F3
sI145
F1
sI4374
F1
sI147
F1
sI148
F1
sI110
F1
sI150
F1
sI151
F1
sI152
F1
sI153
F2
sI154
F2
sI3739
F1
sI1583
F1
sI673
F1
sI162
F1
sI3747
F1
sI166
F1
sI2727
F1
sI711
F1
sI1196
F1
sI21166
F1
sI29
F8
sI177
F1
sI178
F1
sI180
F1
sI1205
F2
sI183
F1
sI2819
F1
sI628
F1
sI187
F2
sI188
F3
sI190
F2
sI629
F1
sI545
F1
sI195
F3
sI198
F2
sI1735
F1
sI1737
F1
sI202
F1
sI119
F1
sI206
F1
sI207
F1
sI770
F1
sI209
F1
sI1814
F1
sI211
F1
sI216
F1
sI36
F2
sI219
F1
sI3804
F1
sI461
F1
sI222
F1
sI224
F1
sI9441
F1
sI226
F1
sI227
F1
sI5348
F1
sI232
F2
sI234
F1
sI1525
F1
sI3311
F1
sI1267
F1
sI707
F1
sI20728
F1
sI251
F2
sI21756
F1
sI254
F2
sI1794
F1
sI1323
F1
sI260
F1
sI385
F1
sI778
F1
sI7947
F1
sI4365
F1
sI270
F1
sI1837
F1
sI784
F1
sI1297
F1
sI274
F1
sI275
F1
sI789
F1
sI278
F1
sI283
F1
sI284
F1
sI288
F2
sI2850
F1
sI803
F1
sI292
F2
sI646
F1
sI294
F1
sI807
F1
sI1244
F1
sI811
F1
sI813
F1
sI1327
F1
sI305
F1
sI12594
F1
sI2355
F1
sI308
F1
sI309
F1
sI10550
F1
sI649
F1
sI824
F1
sI2100
F1
sI314
F1
sI1851
F1
sI316
F1
sI319
F4
sI181
F1
sI36675
F1
sI324
F1
sI3638
F1
sI208
F1
sI13641
F1
sI330
F1
sI4612
F1
sI60
F1
sI1357
F1
sI2275
F1
sI301
F1
sI344
F2
sI4406
F1
sI860
F1
sI517
F1
sI575
F1
sI864
F1
sI1680
F1
sI131
F2
sI455
F2
sI572
F1
sI363
F1
sI146
F1
sI366
F1
sI61
F2
sI1376
F1
sI374
F2
sI376
F1
sI889
F1
sI2111
F1
sI382
F1
sI383
F2
sI4160
F1
sI747
F1
sI65
F2
sI11144
F1
sI1417
F1
sI1930
F1
sI398
F1
sI1423
F1
sI403
F1
sI2453
F1
sI16790
F1
sI921
F1
sI68
F2
sI239
F2
sI666
F1
sI69
F1
sI417
F1
sI1443
F1
sI421
F1
sI422
F1
sI4008
F1
sI425
F1
sI1963
F1
sI8215
F1
sI943
F1
sI120
F1
sI243
F1
sI11188
F1
sI1974
F1
sI10680
F1
sI10740
F1
sI442
F1
sI1013
F1
sI963
F1
sI161
F1
sI457
F1
sI970
F1
sI678
F1
sI973
F1
sI2511
F1
sI464
F1
sI6392
F1
sI163
F2
sI2516
F1
sI4054
F1
sI471
F1
sI984
F1
sI474
F1
sI990
F1
sI70
F3
sI997
F1
sI486
F1
sI1000
F1
sI1788
F1
sI1516
F1
sI498
F1
sI499
F1
sI500
F1
sI501
F1
sI367
F1
sag2
(g3
tRp6
I0
F115
sI1
F67
sI2
F34
sI3
F19
sI4
F13
sI5
F22
sI6
F13
sI7
F15
sI8
F13
sI9
F6
sI10
F2
sI11
F3
sI12
F8
sI13
F6
sI14
F6
sI15
F7
sI16
F3
sI17
F1
sI18
F8
sI19
F6
sI20
F2
sI21
F5
sI22
F2
sI23
F3
sI24
F3
sI25
F4
sI26
F3
sI27
F4
sI28
F1
sI29
F5
sI30
F2
sI31
F1
sI32
F5
sI33
F1
sI34
F1
sI35
F2
sI36
F1
sI38
F1
sI39
F1
sI40
F2
sI41
F2
sI42
F3
sI43
F4
sI44
F1
sI45
F3
sI47
F3
sI48
F3
sI49
F1
sI51
F2
sI52
F3
sI53
F2
sI521
F1
sI58
F1
sI59
F2
sI61
F1
sI66
F1
sI67
F2
sI68
F1
sI71
F1
sI584
F1
sI524
F1
sI74
F1
sI75
F1
sI76
F1
sI78
F1
sI2129
F1
sI82
F1
sI526
F1
sI87
F2
sI612
F1
sI91
F2
sI5725
F1
sI96
F1
sI97
F3
sI100
F1
sI101
F1
sI104
F1
sI105
F1
sI107
F1
sI108
F1
sI109
F1
sI110
F1
sI113
F2
sI114
F1
sI120
F1
sI121
F1
sI122
F1
sI737
F1
sI637
F2
sI639
F2
sI128
F1
sI129
F1
sI130
F1
sI135
F1
sI137
F1
sI138
F1
sI139
F1
sI141
F1
sI2193
F1
sI2196
F1
sI667
F1
sI673
F1
sI164
F1
sI166
F1
sI170
F1
sI2220
F1
sI186
F1
sI188
F1
sI189
F1
sI8736
F1
sI1731
F1
sI199
F1
sI203
F1
sI205
F1
sI214
F1
sI217
F1
sI4316
F1
sI222
F1
sI1249
F1
sI228
F1
sI1256
F1
sI3879
F1
sI240
F1
sI242
F2
sI245
F1
sI255
F1
sI1799
F1
sI265
F1
sI778
F1
sI780
F1
sI4612
F1
sI12570
F1
sI285
F1
sI290
F1
sI2342
F1
sI295
F1
sI307
F1
sI2874
F1
sI650
F1
sI318
F1
sI1859
F1
sI839
F1
sI3400
F1
sI55
F2
sI1871
F1
sI1873
F1
sI338
F1
sI346
F1
sI1338
F1
sI351
F1
sI358
F2
sI5490
F1
sI373
F1
sI1684
F1
sI379
F1
sI380
F1
sI81
F1
sI420
F1
sI426
F1
sI4526
F1
sI73
F1
sI457
F1
sI3019
F1
sI465
F1
sI1495
F1
sI1507
F1
sI593
F1
sI489
F1
sI3053
F1
sI510
F1
sI85
F1
sag2
(g3
tRp7
I0
F247
sI1
F134
sI2
F93
sI3
F61
sI4
F51
sI5
F46
sI6
F38
sI7
F29
sI8
F28
sI9
F27
sI10
F32
sI11
F13
sI12
F31
sI13
F21
sI14
F21
sI15
F21
sI16
F18
sI17
F12
sI18
F14
sI19
F10
sI20
F15
sI21
F17
sI22
F13
sI23
F11
sI24
F19
sI25
F11
sI26
F11
sI27
F6
sI28
F12
sI29
F10
sI30
F7
sI31
F3
sI32
F6
sI33
F12
sI34
F6
sI35
F11
sI36
F6
sI37
F6
sI38
F3
sI39
F6
sI40
F6
sI41
F4
sI42
F4
sI43
F5
sI44
F6
sI45
F7
sI46
F8
sI47
F5
sI48
F11
sI49
F8
sI50
F6
sI51
F6
sI52
F7
sI53
F8
sI54
F2
sI55
F6
sI56
F3
sI57
F5
sI58
F2
sI59
F6
sI60
F10
sI61
F4
sI62
F2
sI63
F5
sI64
F6
sI65
F3
sI66
F8
sI67
F6
sI68
F3
sI69
F5
sI70
F6
sI71
F4
sI72
F3
sI73
F4
sI74
F3
sI10315
F1
sI76
F3
sI77
F4
sI78
F4
sI79
F6
sI80
F1
sI81
F1
sI82
F1
sI83
F3
sI85
F3
sI86
F2
sI87
F4
sI88
F5
sI89
F4
sI91
F1
sI92
F2
sI95
F1
sI96
F1
sI97
F1
sI98
F2
sI99
F1
sI100
F2
sI101
F3
sI102
F2
sI103
F1
sI106
F1
sI107
F3
sI108
F1
sI109
F2
sI110
F2
sI111
F1
sI112
F2
sI113
F1
sI114
F3
sI115
F1
sI116
F1
sI117
F1
sI119
F2
sI121
F2
sI122
F1
sI123
F4
sI124
F2
sI125
F3
sI126
F2
sI127
F1
sI128
F1
sI129
F1
sI130
F2
sI131
F1
sI132
F1
sI133
F3
sI134
F1
sI135
F4
sI137
F1
sI138
F1
sI139
F4
sI140
F3
sI141
F2
sI142
F2
sI143
F2
sI144
F2
sI147
F1
sI148
F2
sI149
F2
sI150
F5
sI6169
F1
sI152
F4
sI155
F1
sI156
F1
sI157
F1
sI160
F2
sI161
F2
sI162
F1
sI163
F1
sI165
F2
sI167
F1
sI168
F1
sI8362
F1
sI171
F1
sI172
F1
sI174
F1
sI177
F2
sI178
F1
sI180
F1
sI181
F2
sI2233
F1
sI187
F1
sI188
F2
sI191
F2
sI192
F1
sI195
F1
sI196
F2
sI197
F1
sI199
F3
sI201
F3
sI202
F2
sI204
F1
sI205
F2
sI208
F1
sI209
F1
sI210
F1
sI212
F1
sI213
F1
sI214
F2
sI216
F3
sI217
F3
sI218
F2
sI220
F1
sI221
F1
sI222
F2
sI223
F1
sI224
F1
sI225
F1
sI226
F1
sI228
F2
sI229
F2
sI230
F1
sI234
F1
sI238
F1
sI239
F1
sI241
F1
sI4340
F1
sI246
F1
sI248
F1
sI250
F1
sI252
F1
sI254
F1
sI258
F1
sI259
F1
sI261
F1
sI263
F2
sI2312
F1
sI268
F1
sI274
F1
sI275
F3
sI276
F1
sI280
F1
sI281
F1
sI282
F1
sI283
F1
sI299
F1
sI419
F1
sI302
F1
sI304
F1
sI307
F1
sI310
F1
sI313
F1
sI314
F1
sI315
F1
sI4414
F1
sI319
F1
sI321
F2
sI323
F1
sI325
F2
sI326
F1
sI327
F1
sI4424
F1
sI334
F1
sI339
F2
sI341
F1
sI343
F1
sI4441
F1
sI347
F1
sI10298
F1
sI352
F2
sI354
F1
sI362
F1
sI363
F2
sI366
F1
sI371
F1
sI374
F2
sI379
F1
sI380
F1
sI4477
F1
sI385
F1
sI392
F1
sI397
F1
sI399
F1
sI401
F1
sI402
F1
sI408
F1
sI409
F1
sI411
F1
sI412
F3
sI415
F1
sI416
F2
sI417
F1
sI6563
F1
sI422
F2
sI423
F1
sI426
F2
sI427
F3
sI428
F1
sI431
F1
sI434
F2
sI439
F1
sI440
F1
sI442
F1
sI444
F1
sI445
F1
sI446
F1
sI448
F1
sI75
F2
sI455
F1
sI457
F1
sI460
F1
sI467
F1
sI475
F1
sI479
F1
sI483
F2
sI486
F1
sI490
F1
sI493
F1
sI500
F1
sI508
F1
sI509
F1
sI512
F1
sI517
F1
sI526
F1
sI530
F1
sI535
F1
sI548
F1
sI550
F1
sI4188
F1
sI559
F1
sI560
F1
sI561
F1
sI562
F1
sI564
F1
sI570
F2
sI575
F1
sI578
F1
sI2630
F1
sI588
F1
sI590
F1
sI2640
F1
sI593
F1
sI596
F1
sI599
F1
sI616
F1
sI617
F1
sI618
F2
sI625
F1
sI626
F1
sI345
F2
sI639
F1
sI646
F1
sI660
F1
sI662
F1
sI671
F1
sI672
F1
sI678
F1
sI684
F1
sI699
F1
sI707
F1
sI709
F1
sI8903
F1
sI731
F1
sI734
F1
sI748
F1
sI2802
F1
sI2824
F1
sI802
F1
sI2852
F1
sI810
F1
sI4914
F1
sI825
F1
sI832
F1
sI6985
F1
sI846
F1
sI849
F1
sI852
F1
sI2906
F1
sI871
F2
sI711
F1
sI895
F1
sI4995
F1
sI151
F1
sI915
F1
sI922
F1
sI925
F1
sI5029
F1
sI953
F1
sI959
F1
sI961
F1
sI972
F1
sI978
F1
sI992
F1
sI1002
F1
sI170
F1
sI1036
F1
sI42000
F1
sI1057
F1
sI2225
F1
sI1084
F1
sI1110
F1
sI185
F3
sI3162
F1
sI1131
F1
sI1132
F1
sI1155
F1
sI1157
F1
sI1159
F1
sI5257
F1
sI5266
F1
sI878
F1
sI1179
F1
sI1181
F1
sI3235
F1
sI1226
F1
sI1227
F1
sI1235
F1
sI3314
F1
sI1267
F1
sI7416
F1
sI1275
F1
sI1306
F1
sI1313
F1
sI1325
F1
sI1403
F1
sI1421
F1
sI3479
F1
sI3485
F1
sI9631
F1
sI1443
F1
sI582
F1
sI1449
F1
sI1459
F1
sI244
F1
sI17881
F1
sI1514
F1
sI1518
F1
sI5618
F1
sI7700
F1
sI1559
F1
sI1560
F1
sI1578
F1
sI1596
F1
sI1671
F1
sI1672
F1
sI3752
F1
sI1719
F1
sI1720
F1
sI14022
F1
sI7116
F1
sI1745
F1
sI1782
F1
sI1795
F1
sI1826
F1
sI12069
F1
sI1868
F1
sI14197
F1
sI1916
F1
sI8061
F1
sI1919
F1
sI1923
F1
sI1925
F1
sI1932
F1
sI1937
F1
sI328
F1
sI1980
F1
sI1999
F1
sI2006
F1
sI8185
F1
sI2019
F1
sI2027
F1
sI4089
F1
sI2045
F1
sag2
(g3
tRp8
I0
F213
sI1
F82
sI2
F48
sI3
F36
sI4
F29
sI5
F23
sI6
F14
sI7
F14
sI8
F7
sI9
F11
sI10
F8
sI11
F8
sI12
F5
sI13
F7
sI14
F7
sI15
F6
sI16
F10
sI17
F5
sI18
F3
sI19
F5
sI20
F5
sI21
F7
sI22
F9
sI23
F7
sI24
F4
sI25
F6
sI26
F6
sI27
F5
sI28
F6
sI29
F4
sI30
F3
sI31
F5
sI32
F3
sI33
F6
sI34
F2
sI35
F5
sI36
F2
sI37
F2
sI38
F3
sI39
F2
sI40
F2
sI41
F5
sI42
F1
sI43
F1
sI44
F3
sI45
F3
sI47
F2
sI48
F2
sI49
F2
sI50
F3
sI51
F1
sI52
F1
sI53
F3
sI55
F2
sI56
F2
sI57
F2
sI58
F1
sI59
F1
sI60
F1
sI3594
F1
sI62
F3
sI63
F1
sI576
F1
sI65
F1
sI66
F3
sI67
F2
sI68
F2
sI69
F4
sI582
F1
sI72
F1
sI74
F1
sI75
F1
sI76
F2
sI77
F2
sI2638
F1
sI79
F3
sI83
F2
sI84
F2
sI598
F1
sI88
F1
sI89
F1
sI93
F2
sI95
F1
sI97
F2
sI2658
F1
sI187
F1
sI100
F1
sI101
F2
sI1638
F1
sI103
F1
sI104
F1
sI617
F1
sI171
F1
sI108
F1
sI530
F1
sI110
F3
sI111
F1
sI625
F1
sI1538
F1
sI1140
F1
sI117
F1
sI1143
F1
sI3775
F1
sI686
F1
sI127
F1
sI128
F1
sI129
F2
sI131
F2
sI132
F1
sI133
F1
sI134
F2
sI1159
F1
sI136
F1
sI137
F2
sI138
F1
sI139
F1
sI140
F2
sI141
F1
sI3220
F1
sI149
F1
sI17049
F1
sI4250
F1
sI155
F2
sI158
F1
sI2409
F1
sI160
F2
sI163
F2
sI8357
F1
sI166
F1
sI113
F1
sI7337
F1
sI193
F1
sI5803
F1
sI174
F1
sI691
F1
sI180
F2
sI181
F1
sI183
F2
sI185
F1
sI15547
F1
sI671
F1
sI191
F1
sI2080
F1
sI86
F1
sI195
F1
sI196
F1
sI197
F1
sI710
F1
sI199
F1
sI201
F1
sI3191
F1
sI204
F1
sI205
F2
sI721
F1
sI722
F1
sI3800
F1
sI218
F1
sI219
F2
sI7390
F1
sI736
F1
sI225
F1
sI230
F1
sI1255
F1
sI636
F1
sI1184
F1
sI238
F1
sI2289
F1
sI242
F1
sI244
F1
sI247
F1
sI1786
F1
sI256
F2
sI774
F1
sI264
F2
sI3856
F1
sI1297
F1
sI1299
F1
sI788
F1
sI277
F1
sI10011
F1
sI13871
F1
sI572
F1
sI800
F1
sI2523
F1
sI296
F1
sI3369
F1
sI3634
F1
sI4399
F1
sI311
F1
sI2612
F1
sI1077
F1
sI198
F1
sI1857
F1
sI2886
F1
sI327
F1
sI2159
F1
sI1868
F1
sI853
F1
sI313
F1
sI2020
F1
sI1631
F1
sI867
F1
sI2405
F1
sI1382
F1
sI8553
F1
sI363
F1
sI27222
F1
sI4461
F1
sI366
F1
sI6000
F1
sI3957
F1
sI377
F1
sI381
F1
sI64
F3
sI902
F1
sI1601
F1
sI7056
F1
sI303
F1
sI7617
F1
sI409
F1
sI70
F4
sI934
F1
sI2471
F1
sI428
F1
sI10994
F1
sI3512
F1
sI443
F1
sI586
F1
sI448
F2
sI2497
F1
sI452
F1
sI1478
F1
sI459
F1
sI2517
F1
sI982
F1
sI4055
F1
sI2008
F1
sI985
F1
sI475
F1
sI677
F1
sI995
F1
sI5604
F1
sI1446
F1
sI489
F1
sI1002
F1
sI8683
F1
sI1519
F1
sI596
F2
sI119
F1
sI509
F1
sag2
(g3
tRp9
I0
F332
sI1
F132
sI2
F86
sI3
F69
sI4
F47
sI5
F31
sI6
F31
sI7
F27
sI8
F29
sI9
F14
sI10
F15
sI11
F14
sI12
F11
sI13
F13
sI14
F18
sI15
F11
sI16
F12
sI17
F14
sI18
F7
sI19
F12
sI20
F7
sI21
F6
sI22
F8
sI23
F14
sI24
F13
sI25
F11
sI26
F8
sI27
F6
sI28
F9
sI29
F2
sI30
F6
sI31
F5
sI32
F3
sI33
F3
sI34
F1
sI35
F9
sI36
F4
sI37
F2
sI1024
F1
sI39
F5
sI40
F2
sI41
F4
sI42
F10
sI43
F2
sI44
F3
sI45
F2
sI46
F1
sI47
F2
sI48
F4
sI49
F4
sI50
F5
sI51
F5
sI52
F3
sI53
F6
sI54
F3
sI55
F3
sI3640
F1
sI57
F2
sI58
F6
sI59
F2
sI60
F2
sI61
F3
sI62
F2
sI63
F3
sI64
F5
sI65
F2
sI66
F3
sI67
F1
sI2116
F1
sI69
F2
sI70
F1
sI97
F1
sI72
F3
sI73
F1
sI74
F2
sI8267
F1
sI76
F1
sI77
F1
sI78
F3
sI3597
F1
sI12368
F1
sI81
F3
sI82
F3
sI83
F1
sI85
F1
sI86
F2
sI87
F1
sI88
F1
sI89
F2
sI90
F2
sI91
F3
sI95
F3
sI2657
F1
sI99
F2
sI2660
F1
sI101
F2
sI1126
F1
sI529
F1
sI105
F2
sI2666
F1
sI71
F1
sI110
F1
sI512
F1
sI112
F1
sI113
F1
sI114
F2
sI115
F1
sI117
F1
sI1142
F1
sI120
F1
sI121
F2
sI447
F1
sI3274
F1
sI125
F3
sI1151
F1
sI128
F1
sI3201
F1
sI131
F1
sI132
F1
sI133
F2
sI134
F2
sI1159
F1
sI2696
F1
sI137
F1
sI138
F1
sI139
F1
sI140
F1
sI1474
F1
sI142
F2
sI1679
F1
sI144
F1
sI145
F1
sI146
F1
sI147
F1
sI789
F1
sI151
F1
sI152
F1
sI153
F1
sI280
F1
sI1691
F1
sI157
F1
sI355
F1
sI160
F1
sI3745
F1
sI164
F1
sI167
F1
sI584
F1
sI199
F2
sI6829
F1
sI174
F1
sI177
F1
sI179
F1
sI181
F1
sI184
F1
sI185
F1
sI330
F1
sI7370
F1
sI2750
F1
sI191
F1
sI192
F1
sI195
F1
sI1057
F1
sI202
F1
sI143
F1
sI208
F1
sI547
F1
sI212
F2
sI214
F1
sI215
F1
sI12889
F1
sI218
F1
sI219
F1
sI221
F2
sI222
F1
sI805
F1
sI1846
F1
sI227
F1
sI228
F1
sI38
F4
sI307
F1
sI234
F2
sI551
F1
sI236
F1
sI238
F2
sI240
F1
sI4849
F1
sI2804
F1
sI3829
F1
sI246
F1
sI2088
F1
sI5880
F1
sI249
F1
sI127
F1
sI16636
F1
sI6399
F1
sI768
F1
sI2819
F1
sI3844
F1
sI263
F1
sI264
F1
sI111
F1
sI268
F2
sI1295
F1
sI784
F1
sI245
F1
sI1582
F1
sI2055
F1
sI796
F1
sI293
F1
sI1726
F1
sI135
F2
sI300
F2
sI1586
F1
sI819
F2
sI309
F1
sI2056
F1
sI7482
F1
sI319
F2
sI2368
F1
sI322
F1
sI566
F1
sI701
F1
sI993
F1
sI328
F1
sI79
F1
sI332
F1
sI333
F1
sI336
F1
sI56
F1
sI1763
F1
sI344
F1
sI347
F2
sI860
F2
sI2913
F1
sI867
F1
sI597
F1
sI438
F1
sI80
F1
sI21353
F1
sI1899
F1
sI877
F1
sI878
F1
sI29039
F1
sI887
F1
sI148
F1
sI575
F1
sI1404
F1
sI1258
F1
sI382
F1
sI383
F1
sI2229
F1
sI900
F1
sI390
F1
sI2485
F1
sI394
F1
sI3468
F1
sI911
F1
sI915
F1
sI3480
F1
sI68
F2
sI410
F1
sI9628
F1
sI155
F1
sI1447
F1
sI412
F1
sI939
F1
sI1965
F1
sI430
F1
sI431
F1
sI433
F1
sI436
F1
sI437
F1
sI950
F1
sI2487
F1
sI244
F1
sI586
F1
sI3519
F1
sI2496
F1
sI100
F1
sI26050
F1
sI75
F1
sI17569
F1
sI714
F1
sI459
F1
sI5580
F1
sI4558
F1
sI976
F1
sI248
F1
sI475
F1
sI476
F1
sI627
F1
sI4432
F1
sI487
F1
sI1001
F2
sI490
F2
sI493
F1
sI272
F1
sI2549
F1
sI3066
F1
sI5117
F1
sI510
F1
sI1599
F1
sag2
(g3
tRp10
I0
F509
sI1
F224
sI2
F136
sI3
F114
sI4
F93
sI5
F45
sI6
F46
sI7
F46
sI8
F20
sI9
F27
sI10
F28
sI11
F29
sI12
F25
sI13
F15
sI14
F21
sI15
F18
sI16
F12
sI17
F12
sI18
F10
sI19
F15
sI20
F9
sI21
F10
sI22
F13
sI23
F10
sI24
F14
sI25
F14
sI26
F7
sI27
F8
sI28
F4
sI29
F10
sI30
F10
sI31
F8
sI32
F9
sI33
F6
sI34
F3
sI35
F4
sI36
F5
sI37
F5
sI38
F3
sI39
F8
sI40
F6
sI41
F2
sI42
F4
sI43
F3
sI44
F3
sI45
F3
sI46
F3
sI47
F4
sI48
F6
sI49
F2
sI50
F3
sI51
F2
sI52
F3
sI53
F5
sI54
F4
sI55
F2
sI56
F4
sI57
F1
sI58
F1
sI59
F2
sI60
F3
sI61
F3
sI62
F5
sI63
F4
sI65
F3
sI4162
F1
sI67
F2
sI68
F1
sI69
F2
sI70
F2
sI71
F1
sI584
F1
sI73
F2
sI74
F3
sI183
F1
sI76
F2
sI589
F1
sI78
F3
sI80
F1
sI82
F1
sI83
F1
sI84
F1
sI526
F1
sI86
F2
sI87
F2
sI91
F3
sI92
F2
sI93
F1
sI94
F1
sI95
F1
sI96
F2
sI97
F2
sI98
F1
sI611
F1
sI100
F2
sI101
F2
sI102
F1
sI1127
F1
sI104
F3
sI107
F1
sI108
F1
sI109
F1
sI110
F1
sI111
F2
sI2152
F1
sI627
F1
sI116
F4
sI118
F1
sI119
F1
sI120
F4
sI121
F2
sI128
F2
sI129
F1
sI131
F2
sI9347
F1
sI133
F1
sI134
F2
sI136
F1
sI138
F1
sI139
F1
sI140
F3
sI175
F1
sI142
F1
sI22159
F1
sI144
F1
sI7796
F1
sI146
F1
sI147
F1
sI149
F1
sI150
F1
sI281
F1
sI153
F1
sI6811
F1
sI156
F1
sI282
F1
sI1028
F1
sI160
F2
sI734
F1
sI162
F1
sI166
F1
sI170
F1
sI199
F3
sI517
F1
sI173
F1
sI1199
F1
sI2737
F1
sI115
F1
sI180
F1
sI3765
F1
sI182
F1
sI739
F1
sI185
F1
sI192
F1
sI193
F1
sI195
F1
sI4641
F1
sI200
F1
sI201
F2
sI202
F1
sI1228
F1
sI211
F1
sI214
F2
sI215
F1
sI216
F1
sI218
F1
sI219
F1
sI2268
F1
sI222
F1
sI223
F2
sI604
F1
sI227
F1
sI229
F1
sI295
F1
sI236
F1
sI451
F1
sI239
F1
sI4336
F1
sI1099
F1
sI5075
F1
sI1268
F1
sI249
F1
sI14077
F1
sI261
F1
sI1288
F1
sI266
F2
sI267
F1
sI268
F1
sI270
F2
sI2605
F1
sI273
F1
sI274
F2
sI275
F1
sI276
F2
sI279
F1
sI132
F1
sI794
F1
sI283
F1
sI288
F2
sI560
F1
sI291
F1
sI305
F1
sI298
F1
sI304
F1
sI38536
F1
sI752
F1
sI12339
F1
sI308
F1
sI309
F1
sI564
F1
sI314
F1
sI827
F1
sI318
F1
sI329
F1
sI8523
F1
sI332
F1
sI141
F2
sI848
F1
sI4323
F1
sI654
F1
sI344
F1
sI347
F1
sI350
F1
sI1376
F1
sI1383
F1
sI368
F2
sI882
F1
sI2195
F1
sI897
F1
sI391
F1
sI909
F1
sI399
F1
sI407
F1
sI1433
F1
sI2462
F1
sI3312
F1
sI24994
F1
sI420
F1
sI423
F1
sI428
F2
sI72
F1
sI7923
F1
sI437
F1
sI5620
F1
sI443
F1
sI75
F1
sI453
F1
sI972
F1
sI418
F1
sI77
F1
sI464
F2
sI5587
F1
sI984
F1
sI1209
F1
sI19424
F1
sI4065
F1
sI158
F1
sI487
F1
sI253
F1
sI496
F1
sI3059
F1
sI1012
F1
sI508
F1
sI85
F2
sag2
(g3
tRp11
I0
F371
sI1
F137
sI2
F92
sI3
F55
sI4
F48
sI5
F35
sI6
F35
sI7
F29
sI8
F21
sI9
F27
sI10
F34
sI11
F18
sI12
F15
sI13
F15
sI14
F11
sI15
F12
sI16
F15
sI17
F11
sI18
F8
sI19
F9
sI20
F13
sI21
F9
sI22
F5
sI23
F8
sI24
F12
sI25
F7
sI26
F3
sI27
F8
sI28
F9
sI29
F4
sI30
F4
sI31
F1
sI32
F1
sI33
F2
sI34
F6
sI35
F4
sI36
F2
sI37
F7
sI38
F6
sI39
F3
sI40
F2
sI41
F4
sI42
F2
sI43
F1
sI45
F1
sI46
F4
sI47
F1
sI48
F1
sI49
F1
sI50
F2
sI51
F2
sI513
F1
sI53
F1
sI54
F1
sI55
F1
sI56
F2
sI57
F2
sI58
F1
sI59
F2
sI61
F2
sI62
F1
sI63
F2
sI53824
F1
sI66
F2
sI67
F2
sI69
F3
sI70
F1
sI72
F1
sI74
F2
sI75
F1
sI76
F2
sI77
F1
sI81
F2
sI595
F2
sI88
F1
sI90
F1
sI4623
F1
sI92
F2
sI93
F1
sI94
F1
sI95
F1
sI96
F1
sI97
F1
sI102
F1
sI3174
F1
sI103
F1
sI105
F1
sI1642
F1
sI108
F1
sI532
F1
sI111
F1
sI118
F2
sI119
F2
sI121
F1
sI26235
F1
sI125
F1
sI126
F2
sI127
F2
sI129
F1
sI131
F1
sI133
F1
sI3207
F1
sI138
F1
sI141
F1
sI24206
F1
sI1171
F1
sI151
F1
sI2201
F1
sI155
F1
sI156
F1
sI1386
F1
sI670
F1
sI161
F1
sI168
F2
sI171
F1
sI2732
F1
sI173
F1
sI1710
F1
sI688
F1
sI1203
F1
sI181
F2
sI182
F1
sI183
F1
sI186
F1
sI700
F1
sI190
F1
sI191
F1
sI192
F1
sI195
F2
sI196
F1
sI211
F1
sI200
F1
sI2424
F1
sI6355
F1
sI724
F1
sI215
F1
sI728
F1
sI1060
F1
sI1243
F1
sI220
F1
sI2782
F1
sI2853
F1
sI945
F1
sI123
F1
sI3302
F1
sI2565
F1
sI238
F1
sI241
F1
sI243
F1
sI605
F1
sI259
F1
sI1285
F1
sI777
F1
sI266
F1
sI268
F1
sI272
F1
sI280
F1
sI282
F1
sI7453
F1
sI1312
F1
sI290
F1
sI293
F1
sI3367
F1
sI1586
F1
sI306
F1
sI2360
F1
sI452
F1
sI565
F1
sI1857
F1
sI329
F2
sI330
F1
sI334
F1
sI2616
F1
sI23890
F1
sI142
F1
sI4950
F1
sI349
F1
sI357
F1
sI13671
F1
sI362
F1
sI3435
F1
sI6514
F1
sI888
F1
sI9597
F1
sI383
F1
sI1600
F1
sI179
F1
sI388
F1
sI10333
F1
sI413
F1
sI2461
F1
sI5553
F1
sI4026
F1
sI443
F1
sI3524
F1
sI462
F1
sI478
F1
sI5089
F1
sI8677
F1
sI488
F1
sI1002
F1
sI1005
F1
sI5614
F1
sI3056
F1
sI499
F1
sI502
F1
sI1023
F1
sag2
(g3
tRp12
I0
F282
sI1
F99
sI2
F64
sI3
F32
sI4
F29
sI5
F22
sI6
F13
sI7
F17
sI8
F14
sI9
F14
sI10
F3
sI11
F9
sI12
F11
sI13
F2
sI14
F7
sI15
F6
sI16
F6
sI17
F5
sI18
F2
sI19
F4
sI20
F8
sI21
F6
sI22
F7
sI23
F6
sI24
F5
sI25
F5
sI26
F2
sI27
F4
sI28
F5
sI29
F4
sI30
F5
sI31
F2
sI32
F2
sI34
F2
sI35
F1
sI36
F1
sI37
F3
sI38
F2
sI39
F1
sI40
F1
sI41
F1
sI43
F2
sI44
F4
sI45
F2
sI46
F5
sI47
F1
sI49
F2
sI51
F2
sI52
F1
sI53
F2
sI54
F1
sI55
F1
sI56
F3
sI1081
F1
sI59
F1
sI63
F2
sI64
F1
sI66
F2
sI68
F1
sI70
F1
sI71
F1
sI72
F1
sI585
F1
sI75
F2
sI588
F1
sI78
F1
sI81
F1
sI82
F1
sI83
F1
sI85
F1
sI86
F1
sI90
F1
sI94
F1
sI104
F2
sI106
F1
sI107
F1
sI622
F1
sI125
F1
sI128
F1
sI1161
F1
sI142
F1
sI149
F1
sI154
F3
sI156
F1
sI162
F1
sI174
F1
sI687
F1
sI179
F1
sI185
F1
sI186
F1
sI189
F1
sI195
F1
sI2760
F1
sI2261
F1
sI53977
F1
sI228
F2
sI230
F1
sI50694
F1
sI236
F1
sI238
F1
sI243
F1
sI250
F1
sI274
F1
sI281
F1
sI794
F1
sI293
F1
sI807
F1
sI298
F1
sI817
F1
sI308
F1
sI324
F1
sI1862
F1
sI2105
F1
sI857
F1
sI356
F1
sI4461
F1
sI375
F1
sI9877
F1
sI388
F1
sI397
F1
sI25999
F1
sI927
F1
sI426
F1
sI434
F1
sI16316
F1
sI450
F1
sI76
F2
sI462
F1
sI3542
F1
sI476
F1
sI2298
F1
sI1001
F1
sI492
F1
sI14845
F1
sag2
(g3
tRp13
I0
F90
sI1
F40
sI2
F36
sI3
F25
sI4
F28
sI5
F22
sI6
F22
sI7
F17
sI8
F15
sI9
F10
sI10
F12
sI11
F5
sI12
F14
sI13
F8
sI14
F12
sI15
F14
sI16
F8
sI17
F7
sI18
F5
sI19
F3
sI20
F2
sI21
F4
sI22
F7
sI23
F6
sI24
F8
sI516
F1
sI26
F6
sI27
F3
sI28
F7
sI29
F6
sI30
F2
sI31
F4
sI32
F3
sI33
F4
sI546
F1
sI35
F10
sI36
F1
sI37
F5
sI38
F2
sI39
F3
sI40
F1
sI41
F1
sI42
F3
sI43
F4
sI44
F1
sI45
F3
sI46
F2
sI47
F1
sI48
F2
sI49
F3
sI51
F2
sI52
F3
sI53
F2
sI54
F2
sI55
F4
sI2104
F1
sI57
F3
sI58
F4
sI59
F1
sI572
F1
sI61
F3
sI62
F5
sI63
F1
sI64
F1
sI65
F1
sI66
F2
sI67
F1
sI68
F1
sI69
F1
sI70
F4
sI71
F2
sI72
F1
sI73
F2
sI74
F1
sI1612
F1
sI98
F1
sI78
F2
sI79
F1
sI82
F3
sI84
F1
sI86
F1
sI87
F1
sI88
F1
sI91
F1
sI93
F2
sI95
F1
sI96
F4
sI97
F2
sI2146
F1
sI100
F2
sI102
F5
sI600
F1
sI109
F2
sI622
F2
sI111
F2
sI113
F2
sI114
F2
sI118
F1
sI121
F3
sI122
F1
sI123
F2
sI125
F2
sI126
F1
sI130
F1
sI131
F2
sI6788
F1
sI133
F1
sI134
F1
sI135
F1
sI136
F1
sI137
F1
sI1675
F1
sI140
F2
sI141
F2
sI143
F1
sI145
F1
sI195
F1
sI25
F4
sI152
F1
sI153
F3
sI154
F2
sI156
F2
sI158
F1
sI159
F1
sI160
F1
sI161
F1
sI163
F1
sI164
F2
sI165
F1
sI540
F1
sI171
F2
sI175
F1
sI12465
F1
sI180
F1
sI184
F2
sI185
F1
sI187
F2
sI705
F1
sI194
F1
sI707
F1
sI196
F3
sI1734
F1
sI200
F1
sI10954
F1
sI34
F3
sI205
F1
sI1747
F1
sI724
F1
sI214
F2
sI1145
F1
sI216
F1
sI2778
F1
sI735
F1
sI1248
F1
sI227
F1
sI1252
F1
sI233
F1
sI235
F1
sI697
F1
sI3314
F1
sI211
F3
sI2804
F1
sI23287
F1
sI248
F1
sI1079
F1
sI768
F1
sI770
F1
sI1579
F1
sI260
F3
sI215
F1
sI780
F1
sI435
F1
sI270
F1
sI1295
F1
sI275
F1
sI277
F1
sI132
F1
sI284
F1
sI218
F1
sI287
F1
sI801
F1
sI1315
F1
sI805
F1
sI294
F1
sI561
F1
sI299
F1
sI302
F2
sI3375
F1
sI2367
F1
sI2368
F1
sI5344
F1
sI834
F1
sI285
F1
sI567
F1
sI56
F2
sI344
F1
sI345
F2
sI1222
F1
sI571
F1
sI870
F1
sI60
F1
sI362
F1
sI1900
F1
sI372
F1
sI373
F1
sI374
F2
sI1399
F1
sI1343
F1
sI2795
F1
sI388
F1
sI393
F1
sI1419
F1
sI397
F1
sI399
F2
sI1176
F1
sI269
F1
sI406
F1
sI409
F1
sI416
F1
sI420
F1
sI555
F1
sI423
F1
sI3498
F1
sI1452
F1
sI243
F1
sI436
F1
sI438
F1
sI443
F1
sI446
F1
sI447
F1
sI76
F1
sI458
F1
sI1585
F1
sI462
F1
sI463
F1
sI2004
F1
sI472
F1
sI459
F1
sI480
F1
sI3054
F1
sI501
F1
sI2550
F1
sa.