(lp1
ccollections
defaultdict
p2
(c__builtin__
float
p3
tRp4
I0
F1196
sI1
F559
sI2
F358
sI3
F256
sI4
F213
sI5
F150
sI6
F138
sI7
F122
sI8
F85
sI9
F100
sI10
F108
sI11
F68
sI12
F84
sI13
F61
sI14
F65
sI15
F65
sI16
F50
sI17
F41
sI18
F39
sI19
F37
sI20
F36
sI21
F38
sI22
F37
sI23
F35
sI24
F53
sI25
F39
sI26
F25
sI27
F27
sI28
F34
sI29
F30
sI30
F25
sI31
F18
sI32
F18
sI33
F23
sI34
F16
sI35
F29
sI36
F14
sI37
F19
sI38
F13
sI39
F19
sI40
F15
sI41
F10
sI42
F13
sI43
F14
sI44
F11
sI45
F15
sI46
F17
sI47
F11
sI48
F21
sI49
F16
sI50
F12
sI51
F12
sI52
F12
sI53
F16
sI54
F9
sI55
F13
sI56
F11
sI57
F11
sI58
F7
sI59
F11
sI60
F15
sI61
F12
sI62
F12
sI63
F12
sI64
F7
sI65
F7
sI4162
F1
sI67
F10
sI68
F6
sI69
F10
sI70
F11
sI71
F8
sI72
F5
sI73
F8
sI74
F9
sI10315
F1
sI76
F7
sI77
F6
sI78
F9
sI79
F7
sI80
F2
sI81
F3
sI82
F5
sI83
F4
sI84
F1
sI85
F5
sI86
F5
sI87
F7
sI88
F7
sI89
F4
sI90
F1
sI91
F4
sI92
F5
sI93
F3
sI94
F1
sI95
F4
sI96
F7
sI97
F6
sI98
F4
sI99
F1
sI100
F5
sI101
F5
sI102
F8
sI103
F2
sI104
F3
sI105
F2
sI106
F1
sI107
F4
sI108
F2
sI109
F5
sI110
F4
sI111
F6
sI112
F2
sI113
F3
sI114
F5
sI115
F2
sI116
F5
sI117
F1
sI118
F4
sI119
F7
sI120
F4
sI121
F8
sI122
F3
sI123
F6
sI124
F2
sI125
F6
sI126
F6
sI127
F3
sI128
F4
sI129
F3
sI130
F3
sI131
F5
sI132
F3
sI133
F6
sI134
F4
sI135
F5
sI136
F2
sI137
F2
sI138
F2
sI139
F5
sI140
F8
sI141
F7
sI142
F5
sI143
F2
sI144
F3
sI145
F1
sI146
F1
sI147
F2
sI148
F3
sI149
F3
sI150
F6
sI151
F2
sI152
F5
sI153
F4
sI154
F2
sI155
F3
sI156
F5
sI157
F1
sI158
F2
sI709
F1
sI160
F5
sI161
F4
sI162
F2
sI163
F2
sI164
F3
sI165
F3
sI166
F1
sI167
F1
sI168
F3
sI8362
F1
sI171
F4
sI172
F1
sI173
F2
sI174
F1
sI175
F2
sI177
F3
sI178
F1
sI179
F2
sI180
F2
sI181
F4
sI182
F2
sI183
F2
sI2461
F1
sI185
F4
sI186
F1
sI187
F2
sI188
F2
sI190
F1
sI191
F3
sI192
F3
sI193
F1
sI195
F4
sI196
F6
sI197
F1
sI199
F5
sI200
F3
sI201
F6
sI202
F3
sI204
F1
sI205
F3
sI208
F1
sI209
F1
sI210
F1
sI211
F5
sI212
F1
sI213
F1
sI214
F5
sI215
F4
sI216
F5
sI217
F4
sI218
F4
sI219
F1
sI220
F2
sI221
F1
sI222
F3
sI223
F3
sI224
F1
sI225
F1
sI226
F1
sI227
F2
sI228
F2
sI229
F3
sI230
F1
sI234
F1
sI235
F1
sI236
F1
sI238
F2
sI239
F2
sI4336
F1
sI241
F2
sI243
F2
sI4340
F1
sI246
F1
sI248
F1
sI249
F1
sI250
F1
sI252
F1
sI253
F1
sI4441
F1
sI258
F1
sI259
F2
sI260
F1
sI261
F2
sI263
F2
sI266
F3
sI267
F1
sI268
F3
sI270
F3
sI418
F1
sI272
F1
sI273
F1
sI274
F3
sI275
F5
sI276
F3
sI277
F1
sI279
F1
sI280
F2
sI281
F2
sI282
F3
sI283
F2
sI285
F1
sI288
F2
sI290
F1
sI291
F1
sI293
F1
sI294
F1
sI295
F1
sI298
F1
sI299
F1
sI302
F3
sI304
F2
sI305
F1
sI306
F1
sI12339
F1
sI308
F1
sI309
F1
sI310
F1
sI2360
F1
sI313
F1
sI314
F2
sI315
F1
sI4414
F1
sI2367
F1
sI2368
F1
sI321
F2
sI323
F1
sI325
F2
sI326
F1
sI327
F1
sI4424
F1
sI329
F3
sI330
F1
sI8523
F1
sI332
F1
sI334
F2
sI397
F2
sI684
F1
sI2104
F1
sI339
F2
sI341
F1
sI343
F1
sI344
F2
sI345
F4
sI347
F2
sI349
F1
sI350
F1
sI352
F2
sI354
F1
sI357
F1
sI362
F3
sI363
F2
sI366
F1
sI368
F2
sI6514
F1
sI371
F1
sI372
F2
sI373
F1
sI374
F4
sI2424
F1
sI379
F1
sI380
F1
sI4477
F1
sI383
F1
sI385
F1
sI388
F2
sI6355
F1
sI391
F1
sI392
F1
sI393
F1
sI66
F12
sI399
F3
sI401
F1
sI402
F1
sI22586
F1
sI406
F1
sI407
F1
sI408
F1
sI409
F2
sI411
F1
sI412
F3
sI413
F1
sI2462
F1
sI415
F1
sI416
F3
sI417
F1
sI2466
F1
sI6563
F1
sI420
F2
sI422
F2
sI423
F3
sI426
F2
sI427
F3
sI428
F3
sI431
F1
sI3765
F1
sI434
F3
sI435
F1
sI437
F1
sI438
F1
sI439
F1
sI440
F1
sI442
F1
sI443
F3
sI444
F1
sI445
F1
sI446
F1
sI448
F1
sI75
F4
sI453
F1
sI455
F1
sI457
F1
sI458
F1
sI459
F1
sI460
F1
sI24994
F1
sI462
F2
sI463
F1
sI464
F2
sI419
F1
sI469
F1
sI472
F1
sI475
F1
sI478
F1
sI479
F1
sI480
F1
sI483
F2
sI8677
F1
sI486
F1
sI487
F1
sI488
F1
sI490
F1
sI491
F1
sI493
F1
sI496
F1
sI499
F1
sI500
F1
sI501
F1
sI2550
F1
sI508
F2
sI509
F1
sI512
F1
sI513
F1
sI516
F1
sI517
F2
sI526
F2
sI4623
F1
sI530
F1
sI10298
F1
sI532
F1
sI535
F1
sI540
F1
sI4641
F1
sI546
F1
sI548
F1
sI550
F1
sI4188
F1
sI2605
F1
sI559
F1
sI560
F2
sI561
F2
sI562
F1
sI564
F2
sI565
F1
sI567
F1
sI2616
F1
sI570
F2
sI572
F1
sI575
F1
sI53824
F1
sI578
F1
sI2630
F1
sI584
F1
sI588
F1
sI589
F1
sI590
F1
sI2640
F1
sI593
F1
sI595
F2
sI596
F1
sI599
F1
sI600
F1
sI604
F1
sI605
F1
sI611
F1
sI616
F1
sI617
F1
sI618
F2
sI622
F2
sI625
F1
sI626
F1
sI627
F1
sI639
F1
sI6788
F1
sI646
F1
sI2696
F1
sI654
F1
sI451
F1
sI660
F1
sI662
F1
sI6811
F1
sI670
F1
sI671
F1
sI672
F1
sI678
F1
sI2732
F1
sI688
F1
sI2737
F2
sI697
F1
sI699
F1
sI700
F1
sI705
F1
sI707
F2
sI2757
F1
sI8903
F1
sI10954
F1
sI719
F1
sI724
F1
sI728
F1
sI2778
F1
sI731
F1
sI734
F2
sI735
F1
sI739
F1
sI502
F1
sI748
F1
sI752
F1
sI2802
F1
sI467
F1
sI2804
F1
sI23287
F1
sI760
F1
sI768
F1
sI770
F1
sI2824
F1
sI777
F1
sI1155
F1
sI794
F1
sI801
F1
sI802
F1
sI2852
F1
sI805
F1
sI810
F1
sI3207
F1
sI817
F1
sI4914
F1
sI825
F1
sI827
F1
sI832
F1
sI834
F1
sI6985
F1
sI846
F1
sI848
F1
sI849
F1
sI852
F1
sI4950
F1
sI2906
F1
sI871
F2
sI711
F1
sI1734
F1
sI882
F1
sI2195
F1
sI888
F1
sI895
F1
sI897
F1
sI4995
F1
sI909
F1
sI915
F1
sI5614
F1
sI2201
F1
sI922
F1
sI925
F2
sI5029
F1
sI1522
F1
sI945
F1
sI953
F1
sI959
F1
sI961
F1
sI13671
F1
sI2146
F1
sI7116
F1
sI978
F1
sI5075
F1
sI984
F1
sI19424
F1
sI5089
F1
sI1002
F2
sI1005
F1
sI3054
F1
sI3056
F1
sI3059
F1
sI1012
F1
sI170
F2
sI1023
F1
sI1028
F1
sI1036
F1
sI42000
F1
sI2565
F1
sI1057
F1
sI1060
F1
sI2225
F1
sI10333
F1
sI1084
F1
sI1099
F1
sI184
F1
sI1110
F1
sI2233
F1
sI3162
F1
sI3174
F1
sI1127
F1
sI1131
F1
sI1132
F1
sI1145
F1
sI3194
F1
sI9347
F1
sI1157
F1
sI1159
F1
sI5257
F1
sI1171
F1
sI878
F2
sI1179
F1
sI1181
F1
sI3235
F1
sI1199
F1
sI1203
F1
sI1209
F1
sI1222
F1
sI1226
F1
sI1227
F1
sI1228
F1
sI1235
F1
sI1243
F1
sI1248
F1
sI3302
F1
sI3312
F1
sI3314
F2
sI1267
F1
sI1268
F1
sI7416
F1
sI1275
F1
sI1285
F1
sI1288
F1
sI1295
F1
sI1306
F1
sI7453
F1
sI1312
F1
sI1313
F1
sI1315
F1
sI3367
F1
sI2268
F1
sI1325
F1
sI3375
F1
sI1343
F1
sI5344
F1
sI23890
F1
sI318
F1
sI1376
F1
sI1383
F1
sI1386
F1
sI3435
F1
sI1399
F1
sI1403
F1
sI9597
F1
sI1419
F1
sI1421
F1
sI3479
F1
sI1433
F1
sI3485
F1
sI9631
F1
sI1443
F1
sI582
F1
sI1449
F1
sI3498
F1
sI1452
F1
sI5553
F1
sI1459
F1
sI244
F1
sI3524
F1
sI5587
F1
sI17881
F1
sI1507
F1
sI1514
F1
sI1518
F1
sI5618
F1
sI5620
F1
sI254
F1
sI7700
F1
sI1559
F1
sI1560
F1
sI1578
F1
sI1579
F1
sI1585
F1
sI1586
F2
sI5683
F1
sI1596
F1
sI1600
F1
sI12465
F1
sI1612
F1
sI2782
F1
sI1642
F1
sI7796
F1
sI26235
F1
sI1671
F1
sI38536
F1
sI1675
F1
sI24206
F1
sI22159
F1
sI9885
F1
sI3752
F1
sI1710
F1
sI2853
F1
sI1719
F1
sI1720
F1
sI6945
F1
sI14022
F1
sI972
F2
sI1745
F1
sI1747
F1
sI7923
F1
sI1782
F1
sI14077
F1
sI1795
F1
sI1799
F1
sI1814
F1
sI1826
F1
sI12069
F1
sI1672
F1
sI307
F1
sI1857
F1
sI1868
F1
sI2152
F1
sI1900
F1
sI1902
F1
sI14197
F1
sI319
F1
sI1916
F1
sI8061
F1
sI1919
F1
sI1923
F1
sI1925
F1
sI1932
F1
sI1937
F1
sI328
F1
sI4026
F1
sI1980
F1
sI1999
F1
sI2004
F1
sI2006
F1
sI4089
F1
sI4061
F1
sI4065
F1
sI2019
F1
sI2027
F1
sI8185
F1
sI2045
F1
sag2
(g3
tRp5
I0
F1619
sI1
F614
sI2
F387
sI3
F258
sI4
F197
sI5
F159
sI6
F120
sI7
F97
sI8
F100
sI9
F79
sI10
F53
sI11
F56
sI12
F61
sI13
F52
sI14
F57
sI15
F46
sI16
F51
sI17
F36
sI18
F32
sI19
F40
sI20
F35
sI21
F32
sI22
F41
sI23
F42
sI24
F40
sI25
F29
sI26
F29
sI27
F26
sI28
F25
sI29
F24
sI30
F29
sI31
F19
sI32
F17
sI33
F14
sI34
F15
sI35
F21
sI36
F11
sI37
F20
sI38
F21
sI39
F13
sI40
F11
sI41
F18
sI42
F16
sI43
F14
sI44
F13
sI45
F12
sI46
F11
sI47
F13
sI48
F15
sI49
F13
sI50
F12
sI51
F14
sI52
F13
sI53
F16
sI54
F9
sI55
F9
sI56
F7
sI57
F8
sI58
F11
sI59
F8
sI60
F4
sI61
F7
sI62
F9
sI63
F10
sI64
F15
sI65
F6
sI66
F11
sI67
F9
sI68
F7
sI69
F8
sI70
F12
sI71
F5
sI72
F8
sI73
F5
sI74
F4
sI8267
F1
sI76
F11
sI77
F3
sI78
F7
sI79
F5
sI12368
F1
sI81
F9
sI82
F7
sI83
F7
sI84
F6
sI85
F4
sI86
F6
sI87
F4
sI88
F2
sI89
F3
sI90
F4
sI91
F8
sI92
F3
sI93
F4
sI94
F2
sI95
F5
sI96
F3
sI97
F6
sI99
F2
sI100
F6
sI101
F6
sI102
F2
sI103
F4
sI104
F7
sI105
F4
sI106
F2
sI107
F2
sI108
F5
sI109
F3
sI110
F6
sI111
F4
sI112
F1
sI113
F5
sI114
F3
sI115
F1
sI117
F4
sI118
F1
sI361
F2
sI120
F3
sI121
F4
sI122
F2
sI123
F1
sI124
F2
sI125
F4
sI126
F1
sI127
F2
sI128
F5
sI129
F4
sI130
F2
sI131
F6
sI132
F3
sI133
F4
sI134
F7
sI135
F5
sI136
F7
sI137
F6
sI138
F4
sI139
F4
sI140
F3
sI141
F3
sI142
F3
sI143
F4
sI144
F4
sI145
F4
sI146
F3
sI147
F3
sI2196
F1
sI149
F2
sI150
F1
sI6169
F1
sI152
F2
sI153
F3
sI154
F5
sI155
F3
sI156
F1
sI157
F1
sI158
F1
sI159
F1
sI160
F3
sI161
F2
sI162
F2
sI163
F4
sI164
F2
sI8357
F1
sI166
F3
sI167
F1
sI169
F1
sI170
F1
sI7879
F1
sI2220
F1
sI174
F3
sI177
F2
sI178
F1
sI179
F1
sI180
F4
sI181
F3
sI183
F3
sI184
F3
sI185
F4
sI186
F2
sI187
F4
sI188
F4
sI189
F2
sI190
F2
sI191
F2
sI192
F1
sI2080
F1
sI194
F1
sI195
F7
sI196
F1
sI197
F1
sI198
F3
sI199
F5
sI201
F1
sI202
F2
sI203
F1
sI204
F1
sI205
F3
sI206
F1
sI207
F3
sI208
F2
sI209
F1
sI211
F2
sI212
F3
sI2261
F1
sI214
F3
sI216
F1
sI217
F1
sI218
F2
sI219
F6
sI4316
F1
sI221
F2
sI222
F3
sI224
F1
sI225
F1
sI226
F1
sI227
F2
sI228
F4
sI230
F2
sI232
F2
sI233
F1
sI234
F3
sI236
F2
sI238
F4
sI239
F2
sI240
F2
sI2088
F1
sI242
F3
sI243
F2
sI244
F2
sI245
F3
sI246
F1
sI247
F1
sI20728
F1
sI249
F1
sI250
F1
sI251
F2
sI16636
F1
sI254
F2
sI6399
F1
sI256
F2
sI260
F3
sI263
F1
sI264
F3
sI265
F1
sI267
F1
sI268
F2
sI4365
F1
sI270
F1
sI272
F1
sI273
F1
sI274
F2
sI275
F2
sI277
F1
sI278
F1
sI2055
F1
sI281
F1
sI12570
F1
sI283
F1
sI284
F2
sI285
F2
sI287
F1
sI288
F2
sI290
F1
sI292
F2
sI293
F2
sI2342
F1
sI295
F1
sI296
F1
sI298
F2
sI299
F1
sI300
F2
sI301
F1
sI4399
F1
sI305
F1
sI12594
F1
sI2355
F1
sI308
F2
sI309
F2
sI10550
F1
sI311
F1
sI2100
F1
sI314
F1
sI316
F1
sI318
F1
sI319
F6
sI2368
F1
sI322
F1
sI324
F2
sI327
F1
sI328
F1
sI330
F2
sI332
F1
sI333
F1
sI336
F1
sI338
F1
sI2105
F1
sI344
F3
sI346
F1
sI347
F2
sI349
F2
sI351
F1
sI353
F2
sI148
F2
sI355
F1
sI356
F1
sI2405
F1
sI358
F2
sI2108
F1
sI363
F2
sI4461
F2
sI366
F2
sI29039
F1
sI373
F1
sI374
F2
sI375
F1
sI376
F2
sI377
F1
sI2111
F1
sI380
F1
sI381
F1
sI382
F2
sI383
F3
sI4160
F1
sI747
F1
sI388
F1
sI390
F1
sI394
F1
sI397
F1
sI398
F1
sI399
F1
sI403
F1
sI2453
F1
sI16790
F1
sI409
F1
sI2116
F1
sI410
F1
sI412
F1
sI417
F1
sI420
F1
sI421
F1
sI422
F1
sI2471
F1
sI425
F1
sI426
F3
sI427
F1
sI428
F1
sI4526
F1
sI431
F1
sI433
F1
sI436
F2
sI437
F1
sI438
F1
sI2487
F1
sI10680
F1
sI442
F1
sI443
F1
sI446
F1
sI447
F2
sI2496
F1
sI2497
F1
sI450
F1
sI75
F6
sI452
F2
sI455
F2
sI457
F2
sI459
F2
sI461
F1
sI4558
F1
sI2511
F1
sI464
F1
sI465
F1
sI2516
F1
sI2517
F1
sI471
F1
sI474
F2
sI475
F2
sI476
F2
sI25999
F1
sI80
F5
sI486
F1
sI2129
F1
sI488
F1
sI489
F2
sI490
F2
sI8683
F1
sI492
F1
sI493
F1
sI498
F1
sI499
F1
sI10740
F1
sI501
F1
sI509
F1
sI510
F2
sI512
F1
sI4612
F2
sI517
F1
sI521
F1
sI524
F1
sI526
F1
sI529
F1
sI530
F1
sI430
F1
sI541
F1
sI8736
F1
sI545
F1
sI547
F1
sI551
F1
sI555
F1
sI2612
F1
sI566
F1
sI571
F1
sI572
F2
sI575
F2
sI576
F1
sI577
F1
sI578
F1
sI581
F1
sI582
F1
sI584
F2
sI585
F1
sI586
F2
sI588
F1
sI589
F1
sI2638
F1
sI593
F1
sI596
F2
sI597
F1
sI598
F1
sI600
F1
sI12889
F1
sI2657
F1
sI610
F1
sI2660
F2
sI613
F1
sI617
F1
sI2666
F1
sI620
F1
sI622
F1
sI625
F1
sI627
F1
sI628
F1
sI629
F1
sI632
F1
sI686
F1
sI637
F2
sI639
F2
sI448
F2
sI643
F1
sI646
F1
sI649
F1
sI650
F1
sI26050
F1
sI17049
F1
sI666
F1
sI667
F1
sI670
F1
sI2409
F1
sI673
F2
sI677
F1
sI678
F1
sI2727
F1
sI6829
F1
sI21166
F1
sI687
F1
sI691
F1
sI700
F1
sI701
F1
sI2750
F1
sI8898
F1
sI707
F1
sI710
F1
sI711
F1
sI2760
F1
sI714
F1
sI1143
F1
sI718
F1
sI721
F1
sI722
F1
sI724
F1
sI462
F1
sI726
F1
sI53977
F1
sI736
F1
sI737
F1
sI2275
F1
sI2795
F1
sI4849
F1
sI10994
F1
sI2804
F1
sI768
F1
sI770
F1
sI2819
F2
sI774
F1
sI778
F2
sI780
F2
sI784
F2
sI367
F1
sI788
F1
sI789
F2
sI794
F1
sI796
F1
sI800
F1
sI2850
F1
sI803
F1
sI805
F1
sI807
F2
sI811
F1
sI813
F1
sI3549
F1
sI819
F2
sI821
F1
sI824
F1
sI825
F1
sI2874
F1
sI2886
F1
sI839
F1
sI853
F1
sI857
F1
sI860
F3
sI8553
F1
sI864
F1
sI2913
F1
sI867
F2
sI870
F1
sI2193
F1
sI21353
F1
sI487
F2
sI877
F1
sI878
F1
sI1512
F1
sI887
F1
sI889
F1
sI900
F1
sI902
F1
sI11144
F1
sI2485
F1
sI906
F1
sI151
F2
sI911
F1
sI7056
F1
sI303
F1
sI1859
F1
sI921
F1
sI4250
F1
sI927
F2
sI934
F1
sI939
F1
sI943
F1
sI11188
F1
sI950
F1
sI8215
F1
sI500
F1
sI2549
F1
sI4256
F1
sI963
F1
sI970
F1
sI3019
F1
sI973
F1
sI976
F1
sI982
F1
sI984
F1
sI985
F1
sI1871
F1
sI990
F1
sI992
F1
sI993
F1
sI995
F1
sI997
F1
sI1000
F1
sI1001
F3
sI1002
F1
sI3053
F1
sI14845
F1
sI1013
F1
sI1016
F1
sI3066
F1
sI5117
F1
sI1024
F1
sI171
F1
sI1034
F1
sI1057
F1
sI1077
F1
sI1079
F1
sI1081
F1
sI2229
F1
sI1092
F1
sI3597
F1
sI1113
F1
sI4283
F1
sI1126
F1
sI36369
F1
sI1140
F1
sI1142
F1
sI3191
F1
sI1144
F1
sI379
F1
sI1151
F1
sI3201
F1
sI1159
F2
sI1161
F1
sI2289
F1
sI5266
F1
sI3220
F1
sI1176
F1
sI5280
F1
sI17569
F1
sI7337
F1
sI1196
F1
sI1205
F2
sI15547
F1
sI3274
F1
sI7370
F1
sI1244
F1
sI7390
F1
sI9441
F1
sI5348
F1
sI1255
F1
sI1256
F1
sI1258
F1
sI3311
F1
sI1267
F1
sI21756
F1
sI14549
F1
sI1290
F1
sI1295
F1
sI1297
F2
sI1299
F1
sI13871
F1
sI3363
F1
sI3369
F1
sI1323
F1
sI3634
F1
sI1327
F1
sI385
F1
sI7482
F1
sI1249
F1
sI3400
F1
sI13641
F1
sI2159
F1
sI1357
F1
sI4323
F1
sI1252
F1
sI1376
F1
sI1382
F1
sI5480
F1
sI5490
F1
sI915
F1
sI1404
F1
sI3454
F1
sI1417
F1
sI3468
F1
sI1423
F1
sI4298
F1
sI3480
F1
sI2298
F1
sI9628
F1
sI1443
F1
sI1446
F1
sI1447
F1
sI3512
F1
sI3519
F1
sI7617
F1
sI1474
F1
sI1478
F1
sI5580
F1
sI248
F2
sI2192
F1
sI3542
F1
sI1495
F1
sI6392
F1
sI5604
F1
sI119
F2
sI1516
F1
sI1519
F1
sI1525
F1
sI255
F1
sI1538
F1
sI27222
F1
sI50694
F1
sI3594
F1
sI5645
F1
sI2056
F1
sI7724
F1
sI1582
F1
sI1583
F1
sI2312
F1
sI1586
F1
sI3638
F1
sI3640
F1
sI1599
F1
sI1601
F1
sI30278
F1
sI2658
F1
sI269
F1
sI612
F1
sI5725
F1
sI1631
F1
sI1638
F1
sI11881
F1
sI11886
F1
sI1652
F1
sI4374
F1
sI1679
F1
sI1680
F1
sI280
F1
sI1684
F1
sI9877
F1
sI1688
F1
sI1184
F1
sI1691
F1
sI3745
F1
sI3747
F1
sI193
F1
sI5803
F1
sI1726
F1
sI3775
F1
sI1731
F1
sI1735
F1
sI1737
F1
sI3800
F1
sI3804
F1
sI1763
F1
sI294
F1
sI636
F1
sI3829
F1
sI5880
F1
sI1786
F1
sI1788
F1
sI1794
F1
sI3844
F1
sI6163
F1
sI7947
F1
sI3856
F1
sI1814
F1
sI10011
F1
sI3879
F1
sI1837
F1
sI2107
F1
sI307
F3
sI1846
F1
sI1847
F1
sI1851
F1
sI1857
F1
sI36675
F1
sI4406
F1
sI1862
F1
sI1868
F1
sI653
F2
sI1873
F1
sI313
F1
sI1338
F1
sI1899
F1
sI6000
F1
sI3957
F1
sI1930
F1
sI3739
F1
sI4008
F1
sI1963
F1
sI1965
F1
sI1966
F1
sI1974
F1
sI671
F1
sI16316
F1
sI1987
F1
sI4054
F1
sI4055
F1
sI2008
F1
sI4432
F1
sI2020
F1
sI2039
F1
sI2523
F1
sa.