(lp1
ccollections
defaultdict
p2
(c__builtin__
float
p3
tRp4
I0
F978
sI1
F370
sI2
F234
sI3
F158
sI4
F111
sI5
F95
sI6
F70
sI7
F65
sI8
F55
sI9
F44
sI10
F33
sI11
F29
sI12
F30
sI13
F27
sI14
F34
sI15
F27
sI16
F24
sI17
F22
sI18
F12
sI19
F25
sI20
F17
sI21
F19
sI22
F19
sI23
F30
sI24
F22
sI25
F19
sI26
F14
sI27
F17
sI28
F15
sI29
F11
sI30
F19
sI31
F11
sI32
F7
sI33
F2
sI34
F7
sI35
F12
sI36
F6
sI37
F11
sI38
F9
sI39
F7
sI40
F6
sI41
F8
sI42
F13
sI43
F5
sI44
F7
sI45
F6
sI46
F9
sI47
F6
sI48
F9
sI49
F6
sI50
F8
sI51
F8
sI52
F5
sI53
F9
sI54
F4
sI55
F5
sI56
F3
sI57
F5
sI58
F9
sI59
F5
sI60
F2
sI61
F3
sI62
F3
sI63
F6
sI64
F9
sI65
F3
sI66
F5
sI67
F3
sI68
F4
sI69
F3
sI70
F5
sI71
F3
sI72
F6
sI73
F2
sI74
F2
sI8267
F1
sI76
F5
sI77
F1
sI78
F3
sI79
F2
sI12368
F1
sI81
F4
sI82
F5
sI83
F4
sI85
F4
sI86
F3
sI87
F4
sI88
F1
sI89
F2
sI90
F3
sI91
F3
sI92
F3
sI93
F1
sI94
F2
sI95
F3
sI97
F2
sI99
F2
sI100
F2
sI101
F3
sI103
F2
sI104
F4
sI105
F3
sI107
F2
sI108
F1
sI109
F2
sI110
F2
sI111
F1
sI112
F1
sI113
F3
sI114
F2
sI115
F1
sI117
F2
sI120
F2
sI121
F3
sI124
F1
sI125
F4
sI128
F5
sI131
F3
sI132
F1
sI133
F2
sI134
F2
sI135
F2
sI136
F3
sI137
F3
sI138
F2
sI139
F2
sI140
F1
sI142
F3
sI143
F2
sI144
F1
sI2193
F1
sI146
F2
sI147
F1
sI148
F1
sI149
F1
sI150
F1
sI151
F1
sI152
F1
sI154
F4
sI155
F1
sI156
F2
sI157
F1
sI160
F1
sI162
F2
sI164
F1
sI167
F1
sI174
F2
sI177
F3
sI179
F1
sI180
F1
sI181
F2
sI183
F1
sI184
F1
sI185
F1
sI186
F2
sI188
F3
sI189
F1
sI191
F1
sI192
F1
sI195
F3
sI198
F1
sI199
F2
sI202
F1
sI206
F1
sI207
F1
sI208
F1
sI211
F1
sI212
F2
sI214
F2
sI215
F1
sI217
F1
sI218
F1
sI219
F1
sI221
F2
sI222
F2
sI226
F1
sI227
F2
sI228
F3
sI230
F1
sI232
F1
sI234
F2
sI236
F2
sI238
F3
sI240
F1
sI2088
F1
sI243
F2
sI244
F1
sI245
F2
sI246
F1
sI248
F1
sI249
F1
sI250
F1
sI251
F2
sI16636
F1
sI6399
F1
sI259
F1
sI263
F1
sI264
F1
sI267
F1
sI268
F2
sI4365
F1
sI270
F1
sI272
F1
sI274
F2
sI275
F1
sI280
F1
sI281
F1
sI285
F1
sI288
F1
sI290
F1
sI292
F2
sI293
F2
sI2342
F1
sI298
F1
sI300
F2
sI305
F1
sI12594
F1
sI2355
F1
sI308
F2
sI309
F2
sI10550
F1
sI316
F1
sI318
F1
sI319
F4
sI2368
F1
sI324
F1
sI328
F1
sI330
F1
sI332
F1
sI333
F1
sI336
F1
sI2105
F1
sI344
F2
sI347
F2
sI353
F1
sI355
F1
sI356
F1
sI358
F1
sI363
F1
sI4461
F1
sI367
F1
sI373
F1
sI375
F1
sI376
F1
sI380
F1
sI382
F1
sI383
F2
sI385
F1
sI388
F1
sI390
F1
sI394
F1
sI397
F1
sI16790
F1
sI2116
F1
sI410
F1
sI422
F1
sI426
F2
sI430
F1
sI431
F1
sI433
F1
sI436
F1
sI437
F1
sI438
F1
sI2487
F1
sI442
F1
sI447
F1
sI2496
F1
sI450
F1
sI75
F4
sI452
F1
sI455
F1
sI457
F1
sI459
F1
sI462
F1
sI2511
F1
sI2516
F1
sI471
F1
sI475
F1
sI476
F2
sI80
F1
sI490
F2
sI492
F1
sI493
F1
sI498
F1
sI499
F1
sI500
F1
sI2549
F1
sI14845
F1
sI510
F1
sI512
F1
sI513
F1
sI4612
F1
sI517
F1
sI529
F1
sI8736
F1
sI547
F1
sI551
F1
sI566
F1
sI572
F1
sI575
F2
sI584
F2
sI585
F1
sI586
F1
sI588
F1
sI593
F1
sI597
F1
sI12889
F1
sI2660
F2
sI2666
F1
sI622
F1
sI627
F1
sI628
F1
sI632
F1
sI637
F1
sI643
F1
sI650
F1
sI26050
F1
sI673
F1
sI2727
F1
sI6829
F1
sI687
F1
sI701
F1
sI2750
F1
sI2760
F1
sI714
F1
sI724
F1
sI4558
F1
sI53977
F1
sI737
F1
sI4849
F1
sI2804
F1
sI768
F1
sI2819
F2
sI778
F1
sI784
F1
sI789
F2
sI794
F1
sI796
F1
sI805
F1
sI807
F2
sI819
F2
sI821
F1
sI2874
F1
sI857
F1
sI860
F1
sI864
F1
sI2913
F1
sI867
F1
sI145
F1
sI877
F1
sI878
F1
sI887
F1
sI900
F1
sI2485
F1
sI911
F1
sI915
F1
sI927
F1
sI939
F1
sI950
F1
sI8215
F1
sI963
F1
sI970
F1
sI976
F1
sI993
F1
sI1001
F3
sI3066
F1
sI5117
F1
sI1024
F1
sI1034
F1
sI1057
F1
sI1060
F1
sI1081
F1
sI2229
F1
sI1092
F1
sI1126
F1
sI1142
F1
sI1144
F1
sI1151
F1
sI3201
F1
sI1159
F1
sI1161
F1
sI17569
F1
sI1196
F1
sI1205
F2
sI3274
F1
sI7370
F1
sI1249
F1
sI1256
F1
sI1258
F1
sI1267
F1
sI21756
F1
sI1327
F1
sI7482
F1
sI1376
F1
sI1404
F1
sI3454
F1
sI1417
F1
sI3468
F1
sI25999
F1
sI9628
F1
sI1443
F1
sI1447
F1
sI3519
F1
sI1474
F1
sI6392
F1
sI3542
F1
sI2298
F1
sI1516
F1
sI1525
F1
sI50694
F1
sI2056
F1
sI1582
F1
sI1586
F1
sI3640
F1
sI1599
F1
sI612
F1
sI5725
F1
sI1679
F1
sI1684
F1
sI9877
F1
sI1691
F1
sI3745
F1
sI3747
F1
sI1726
F1
sI1731
F1
sI1763
F1
sI3829
F1
sI5880
F1
sI1788
F1
sI3844
F1
sI6163
F1
sI7947
F1
sI1814
F2
sI1837
F1
sI307
F1
sI1846
F1
sI1851
F1
sI36675
F1
sI4406
F1
sI1862
F1
sI1338
F1
sI1899
F1
sI4008
F1
sI1965
F1
sI16316
F1
sI4054
F1
sI4432
F1
sag2
(g3
tRp5
I0
F1115
sI1
F515
sI2
F330
sI3
F242
sI4
F196
sI5
F134
sI6
F121
sI7
F104
sI8
F76
sI9
F85
sI10
F96
sI11
F62
sI12
F75
sI13
F54
sI14
F59
sI15
F56
sI16
F46
sI17
F38
sI18
F34
sI19
F34
sI20
F33
sI21
F36
sI22
F34
sI23
F31
sI24
F48
sI25
F34
sI26
F23
sI27
F24
sI28
F29
sI29
F27
sI30
F22
sI31
F14
sI32
F16
sI33
F20
sI34
F14
sI35
F21
sI36
F13
sI37
F17
sI38
F11
sI39
F16
sI40
F15
sI41
F9
sI42
F10
sI43
F12
sI44
F10
sI45
F12
sI46
F15
sI47
F10
sI48
F18
sI49
F14
sI50
F10
sI51
F10
sI52
F10
sI53
F15
sI54
F7
sI55
F9
sI56
F9
sI57
F9
sI58
F4
sI59
F11
sI60
F13
sI61
F11
sI62
F10
sI63
F11
sI64
F6
sI65
F6
sI4162
F1
sI67
F9
sI68
F5
sI69
F9
sI70
F9
sI71
F6
sI72
F5
sI73
F6
sI74
F8
sI10315
F1
sI76
F7
sI77
F6
sI78
F7
sI79
F6
sI80
F2
sI81
F3
sI82
F3
sI83
F5
sI84
F1
sI85
F5
sI86
F5
sI87
F6
sI88
F6
sI89
F4
sI90
F1
sI91
F4
sI92
F5
sI93
F2
sI94
F1
sI95
F3
sI96
F4
sI97
F5
sI98
F3
sI99
F1
sI100
F4
sI101
F5
sI102
F7
sI103
F2
sI104
F3
sI105
F1
sI106
F2
sI107
F4
sI108
F2
sI109
F4
sI110
F3
sI111
F4
sI112
F2
sI113
F1
sI114
F3
sI115
F2
sI116
F5
sI117
F1
sI118
F3
sI119
F6
sI120
F4
sI121
F5
sI122
F2
sI123
F5
sI124
F2
sI125
F4
sI126
F5
sI127
F3
sI128
F3
sI129
F3
sI130
F2
sI131
F4
sI132
F2
sI133
F5
sI134
F4
sI135
F4
sI136
F2
sI137
F1
sI138
F2
sI139
F5
sI140
F7
sI141
F7
sI142
F5
sI143
F2
sI144
F3
sI145
F1
sI146
F1
sI147
F2
sI148
F3
sI149
F3
sI150
F6
sI151
F2
sI152
F4
sI153
F2
sI155
F2
sI156
F4
sI157
F1
sI158
F1
sI709
F1
sI160
F4
sI161
F3
sI162
F2
sI163
F2
sI164
F2
sI165
F2
sI166
F1
sI167
F1
sI168
F3
sI8362
F1
sI171
F2
sI172
F1
sI173
F2
sI174
F1
sI175
F1
sI177
F2
sI178
F1
sI179
F2
sI180
F1
sI181
F4
sI182
F2
sI183
F2
sI2461
F1
sI185
F4
sI186
F1
sI187
F1
sI188
F2
sI190
F1
sI191
F3
sI192
F3
sI193
F1
sI195
F3
sI196
F3
sI197
F1
sI211
F2
sI199
F5
sI200
F2
sI201
F6
sI202
F3
sI204
F1
sI205
F2
sI208
F1
sI209
F1
sI210
F1
sI6355
F1
sI212
F1
sI213
F1
sI214
F5
sI215
F3
sI216
F4
sI217
F3
sI218
F3
sI219
F1
sI220
F2
sI221
F1
sI222
F3
sI223
F3
sI224
F1
sI225
F1
sI226
F1
sI227
F1
sI228
F2
sI229
F3
sI230
F1
sI234
F1
sI236
F1
sI238
F2
sI239
F2
sI4336
F1
sI241
F2
sI243
F1
sI4340
F1
sI246
F1
sI248
F1
sI249
F1
sI250
F1
sI252
F1
sI253
F1
sI4441
F1
sI258
F1
sI259
F1
sI261
F2
sI263
F2
sI266
F3
sI267
F1
sI268
F3
sI270
F2
sI272
F1
sI273
F2
sI274
F3
sI275
F5
sI276
F3
sI279
F1
sI280
F2
sI281
F2
sI282
F3
sI283
F2
sI288
F2
sI290
F1
sI291
F1
sI293
F1
sI295
F1
sI298
F1
sI299
F1
sI302
F3
sI304
F2
sI305
F1
sI306
F1
sI12339
F1
sI308
F1
sI309
F1
sI310
F1
sI2360
F1
sI313
F1
sI314
F2
sI315
F1
sI4414
F1
sI2367
F1
sI321
F2
sI323
F1
sI325
F2
sI326
F1
sI327
F1
sI4424
F1
sI329
F3
sI330
F1
sI8523
F1
sI332
F1
sI334
F2
sI397
F1
sI684
F1
sI339
F2
sI341
F1
sI343
F1
sI344
F1
sI345
F2
sI347
F2
sI349
F1
sI350
F1
sI352
F2
sI354
F1
sI357
F1
sI362
F2
sI363
F2
sI366
F1
sI368
F2
sI6514
F1
sI371
F1
sI374
F2
sI2424
F1
sI379
F1
sI380
F1
sI4477
F1
sI383
F1
sI385
F1
sI388
F2
sI391
F1
sI392
F1
sI66
F10
sI399
F2
sI401
F1
sI402
F1
sI407
F1
sI408
F1
sI409
F1
sI411
F1
sI412
F3
sI413
F1
sI2462
F1
sI415
F1
sI416
F2
sI417
F1
sI24994
F1
sI419
F1
sI420
F1
sI422
F2
sI423
F2
sI426
F2
sI427
F3
sI428
F3
sI431
F1
sI434
F3
sI437
F1
sI439
F1
sI440
F1
sI442
F1
sI443
F2
sI444
F1
sI445
F1
sI446
F1
sI448
F1
sI75
F4
sI453
F1
sI455
F1
sI457
F1
sI459
F1
sI460
F1
sI418
F1
sI462
F2
sI464
F2
sI467
F1
sI469
F1
sI475
F1
sI478
F1
sI479
F1
sI483
F2
sI8677
F1
sI486
F1
sI487
F1
sI488
F1
sI490
F1
sI6563
F1
sI496
F1
sI499
F1
sI500
F1
sI2550
F1
sI508
F2
sI509
F1
sI512
F1
sI516
F1
sI517
F2
sI526
F2
sI4623
F1
sI530
F1
sI10298
F1
sI532
F1
sI535
F1
sI4641
F1
sI548
F1
sI550
F1
sI4188
F1
sI2605
F1
sI559
F1
sI560
F2
sI561
F1
sI562
F1
sI564
F2
sI565
F1
sI2616
F1
sI570
F2
sI572
F1
sI575
F1
sI53824
F1
sI578
F1
sI2630
F1
sI584
F1
sI588
F1
sI589
F1
sI590
F1
sI2640
F1
sI593
F1
sI595
F2
sI596
F1
sI599
F1
sI604
F1
sI605
F1
sI611
F1
sI616
F1
sI617
F1
sI618
F2
sI622
F1
sI625
F1
sI626
F1
sI627
F1
sI639
F1
sI646
F1
sI2696
F1
sI653
F1
sI654
F1
sI451
F1
sI660
F1
sI662
F1
sI6811
F1
sI670
F1
sI671
F1
sI672
F1
sI678
F1
sI2732
F1
sI688
F1
sI2737
F1
sI697
F1
sI699
F1
sI700
F1
sI707
F1
sI2757
F1
sI8903
F1
sI728
F1
sI2778
F1
sI731
F1
sI734
F2
sI739
F1
sI502
F1
sI748
F1
sI752
F1
sI2802
F1
sI2824
F1
sI777
F1
sI1155
F1
sI794
F1
sI802
F1
sI2852
F1
sI2853
F1
sI810
F1
sI3207
F1
sI817
F1
sI4914
F1
sI825
F1
sI827
F1
sI832
F1
sI6985
F1
sI846
F1
sI848
F1
sI849
F1
sI852
F1
sI4950
F1
sI2906
F1
sI871
F2
sI711
F1
sI882
F1
sI2195
F1
sI888
F1
sI895
F1
sI897
F1
sI4995
F1
sI909
F1
sI493
F1
sI915
F1
sI5614
F1
sI2201
F1
sI922
F1
sI925
F1
sI5029
F1
sI945
F1
sI953
F1
sI959
F1
sI961
F1
sI13671
F1
sI2146
F1
sI7116
F1
sI978
F1
sI5075
F1
sI984
F1
sI19424
F1
sI5089
F1
sI1002
F2
sI1005
F1
sI3056
F1
sI3059
F1
sI1012
F1
sI170
F2
sI1023
F1
sI1028
F1
sI1036
F1
sI42000
F1
sI2565
F1
sI1057
F1
sI2225
F1
sI10333
F1
sI1084
F1
sI1099
F1
sI184
F1
sI1110
F1
sI2233
F1
sI3162
F1
sI4283
F1
sI3174
F1
sI1127
F1
sI1131
F1
sI1132
F1
sI2152
F1
sI3194
F1
sI9347
F1
sI1157
F1
sI1159
F1
sI5257
F1
sI1171
F1
sI878
F1
sI1179
F1
sI1181
F1
sI3235
F1
sI1199
F1
sI1203
F1
sI1209
F1
sI1226
F1
sI1227
F1
sI1228
F1
sI1235
F1
sI1243
F1
sI3302
F1
sI3312
F1
sI3314
F1
sI1267
F1
sI1268
F1
sI7416
F1
sI1275
F1
sI1285
F1
sI1288
F1
sI1306
F1
sI7453
F1
sI1312
F1
sI1313
F1
sI3367
F1
sI2268
F1
sI1325
F1
sI23890
F1
sI318
F1
sI1376
F1
sI1383
F1
sI1386
F1
sI3435
F1
sI1403
F1
sI9597
F1
sI1421
F1
sI3479
F1
sI1433
F1
sI3485
F1
sI9631
F1
sI1443
F1
sI582
F1
sI1449
F1
sI5553
F1
sI1459
F1
sI244
F1
sI3524
F1
sI5587
F1
sI17881
F1
sI1507
F1
sI1514
F1
sI1518
F1
sI5618
F1
sI5620
F1
sI254
F1
sI7700
F1
sI1559
F1
sI1560
F1
sI1578
F1
sI1586
F1
sI1596
F1
sI1600
F1
sI12465
F1
sI1612
F1
sI2782
F1
sI1642
F1
sI7796
F1
sI26235
F1
sI1671
F1
sI38536
F1
sI1675
F1
sI24206
F1
sI22159
F1
sI3752
F1
sI1710
F1
sI3765
F1
sI1719
F1
sI1720
F1
sI14022
F1
sI972
F2
sI1745
F1
sI1747
F1
sI7923
F1
sI1782
F1
sI14077
F1
sI1795
F1
sI1799
F1
sI1826
F1
sI12069
F1
sI1672
F1
sI307
F1
sI1857
F1
sI1868
F1
sI14197
F1
sI319
F1
sI1916
F1
sI1919
F1
sI1923
F1
sI1925
F1
sI1932
F1
sI1937
F1
sI328
F1
sI4026
F1
sI1980
F1
sI1999
F1
sI2006
F1
sI8185
F1
sI4065
F1
sI2019
F1
sI2027
F1
sI4089
F1
sI2045
F1
sag2
(g3
tRp6
I0
F722
sI1
F288
sI2
F181
sI3
F114
sI4
F103
sI5
F80
sI6
F67
sI7
F50
sI8
F54
sI9
F50
sI10
F32
sI11
F33
sI12
F40
sI13
F32
sI14
F29
sI15
F28
sI16
F31
sI17
F17
sI18
F25
sI19
F18
sI20
F21
sI21
F15
sI22
F25
sI23
F16
sI24
F23
sI6169
F1
sI26
F17
sI27
F12
sI28
F15
sI29
F16
sI30
F13
sI31
F12
sI32
F12
sI33
F15
sI34
F10
sI35
F17
sI36
F6
sI37
F11
sI38
F14
sI39
F9
sI40
F5
sI41
F11
sI42
F6
sI43
F11
sI44
F7
sI45
F9
sI46
F4
sI47
F8
sI48
F9
sI49
F9
sI50
F6
sI51
F8
sI52
F10
sI53
F8
sI54
F7
sI55
F8
sI2104
F1
sI57
F5
sI58
F5
sI59
F3
sI60
F4
sI61
F5
sI62
F8
sI63
F5
sI64
F7
sI65
F4
sI66
F8
sI67
F7
sI68
F4
sI69
F6
sI70
F9
sI71
F4
sI72
F2
sI73
F5
sI74
F3
sI75
F2
sI76
F6
sI77
F2
sI78
F6
sI79
F4
sI80
F4
sI2129
F1
sI82
F4
sI83
F2
sI84
F6
sI86
F3
sI87
F1
sI88
F2
sI89
F1
sI90
F1
sI91
F5
sI93
F4
sI95
F3
sI96
F6
sI97
F5
sI98
F1
sI100
F5
sI101
F3
sI102
F3
sI103
F2
sI104
F3
sI105
F2
sI106
F1
sI108
F4
sI109
F2
sI110
F5
sI111
F5
sI113
F4
sI114
F3
sI117
F2
sI118
F2
sI361
F2
sI120
F1
sI121
F4
sI122
F3
sI123
F2
sI124
F1
sI125
F2
sI126
F2
sI127
F2
sI128
F1
sI129
F4
sI130
F3
sI131
F4
sI132
F3
sI133
F3
sI134
F5
sI135
F4
sI136
F4
sI137
F4
sI138
F2
sI139
F2
sI140
F3
sI141
F3
sI143
F2
sI144
F3
sI145
F3
sI146
F1
sI147
F2
sI2196
F1
sI149
F1
sI25
F15
sI152
F2
sI153
F5
sI154
F3
sI155
F3
sI158
F2
sI159
F1
sI160
F3
sI161
F3
sI163
F4
sI164
F2
sI165
F1
sI166
F3
sI169
F1
sI170
F1
sI171
F3
sI2220
F1
sI174
F1
sI175
F1
sI178
F1
sI180
F4
sI181
F1
sI183
F2
sI184
F2
sI185
F3
sI187
F5
sI188
F1
sI189
F1
sI190
F2
sI191
F1
sI2080
F1
sI194
F1
sI195
F5
sI196
F4
sI197
F1
sI198
F2
sI199
F3
sI200
F1
sI201
F1
sI202
F1
sI203
F1
sI204
F1
sI205
F4
sI207
F2
sI208
F1
sI209
F1
sI211
F4
sI212
F1
sI2261
F1
sI214
F1
sI216
F2
sI217
F1
sI218
F2
sI219
F5
sI4316
F1
sI222
F1
sI224
F1
sI225
F1
sI227
F1
sI228
F1
sI230
F1
sI232
F1
sI233
F1
sI234
F1
sI235
F1
sI238
F1
sI239
F2
sI240
F1
sI2289
F1
sI242
F3
sI243
F1
sI244
F1
sI245
F1
sI247
F1
sI20728
F1
sI254
F2
sI255
F1
sI256
F2
sI260
F4
sI2312
F1
sI265
F1
sI269
F1
sI270
F1
sI275
F1
sI277
F2
sI4374
F1
sI2055
F1
sI12570
F1
sI283
F1
sI284
F2
sI285
F2
sI287
F1
sI288
F1
sI294
F2
sI295
F1
sI296
F1
sI298
F1
sI299
F1
sI301
F1
sI4399
F1
sI307
F2
sI311
F1
sI2100
F1
sI314
F1
sI319
F2
sI2368
F1
sI322
F1
sI324
F1
sI327
F1
sI330
F1
sI56
F6
sI338
F1
sI344
F2
sI345
F2
sI346
F1
sI349
F2
sI351
F1
sI353
F1
sI2107
F1
sI2405
F1
sI358
F1
sI2108
F1
sI362
F1
sI363
F1
sI4461
F1
sI366
F2
sI29039
F1
sI372
F2
sI373
F1
sI374
F4
sI376
F1
sI377
F1
sI379
F1
sI381
F1
sI382
F1
sI383
F1
sI4160
F1
sI2795
F1
sI393
F1
sI397
F1
sI398
F1
sI399
F2
sI403
F1
sI2453
F1
sI406
F1
sI409
F2
sI412
F1
sI416
F1
sI417
F1
sI2466
F1
sI420
F2
sI421
F1
sI423
F1
sI425
F1
sI426
F1
sI427
F1
sI428
F1
sI4526
F1
sI435
F1
sI436
F1
sI438
F1
sI10680
F1
sI443
F2
sI446
F1
sI447
F1
sI448
F2
sI2497
F1
sI452
F1
sI455
F1
sI457
F1
sI458
F1
sI459
F1
sI461
F1
sI463
F1
sI464
F1
sI465
F1
sI2517
F1
sI472
F1
sI474
F2
sI475
F1
sI480
F1
sI2471
F1
sI486
F1
sI81
F5
sI488
F1
sI489
F2
sI491
F1
sI10740
F1
sI501
F2
sI509
F1
sI510
F1
sI4612
F1
sI521
F1
sI524
F1
sI526
F1
sI530
F1
sI540
F1
sI541
F1
sI545
F1
sI546
F1
sI555
F1
sI561
F1
sI2612
F1
sI567
F1
sI571
F1
sI572
F1
sI576
F1
sI577
F1
sI578
F1
sI581
F1
sI582
F1
sI586
F1
sI589
F1
sI2638
F1
sI596
F2
sI598
F1
sI600
F2
sI2657
F1
sI610
F1
sI613
F1
sI617
F1
sI620
F1
sI622
F1
sI625
F1
sI629
F1
sI686
F1
sI637
F1
sI639
F2
sI6788
F1
sI646
F1
sI649
F1
sI653
F1
sI4250
F1
sI17049
F1
sI666
F1
sI667
F1
sI670
F1
sI2409
F1
sI673
F1
sI677
F1
sI678
F1
sI21166
F1
sI2737
F1
sI691
F1
sI700
F1
sI705
F1
sI8898
F1
sI707
F2
sI710
F1
sI711
F1
sI10954
F1
sI1143
F1
sI718
F1
sI719
F1
sI721
F1
sI722
F1
sI724
F1
sI726
F1
sI735
F1
sI736
F1
sI2275
F1
sI747
F1
sI10994
F1
sI2804
F1
sI23287
F1
sI760
F1
sI768
F1
sI770
F2
sI774
F1
sI778
F1
sI780
F2
sI784
F1
sI788
F1
sI800
F1
sI801
F1
sI2850
F1
sI803
F1
sI805
F1
sI811
F1
sI813
F1
sI824
F1
sI825
F1
sI834
F1
sI2886
F1
sI839
F1
sI853
F1
sI860
F2
sI8553
F1
sI2192
F1
sI867
F1
sI870
F1
sI21353
F1
sI487
F2
sI878
F1
sI148
F1
sI8683
F1
sI902
F1
sI11144
F1
sI906
F1
sI151
F1
sI7056
F1
sI303
F1
sI921
F1
sI925
F1
sI927
F1
sI934
F1
sI943
F1
sI11188
F1
sI4256
F1
sI3019
F1
sI973
F1
sI982
F1
sI984
F1
sI985
F1
sI990
F1
sI8357
F1
sI992
F1
sI995
F1
sI997
F1
sI1000
F1
sI1002
F1
sI3053
F1
sI3054
F1
sI1013
F1
sI1016
F1
sI1077
F1
sI1079
F1
sI7879
F1
sI3597
F1
sI1113
F1
sI1140
F1
sI3191
F1
sI1145
F1
sI1159
F1
sI5266
F1
sI3220
F1
sI1176
F1
sI5280
F1
sI7337
F1
sI15547
F1
sI4298
F1
sI1222
F1
sI889
F1
sI1244
F1
sI7390
F1
sI1248
F1
sI9441
F1
sI5348
F1
sI1255
F1
sI3311
F1
sI3314
F1
sI14549
F1
sI1290
F1
sI1295
F2
sI1297
F2
sI1299
F1
sI13871
F1
sI1315
F1
sI3369
F1
sI1323
F1
sI3634
F1
sI3375
F1
sI1343
F1
sI5344
F1
sI3400
F1
sI13641
F1
sI2159
F1
sI1357
F1
sI4323
F1
sI1252
F1
sI1382
F1
sI5480
F1
sI5490
F1
sI1399
F1
sI1419
F1
sI1423
F1
sI3480
F1
sI1446
F1
sI3498
F1
sI1452
F1
sI3512
F1
sI7617
F1
sI1478
F1
sI5580
F1
sI248
F1
sI1495
F1
sI3549
F1
sI5604
F1
sI1512
F1
sI1519
F1
sI1522
F1
sI119
F3
sI1538
F1
sI27222
F1
sI3594
F1
sI5645
F1
sI36369
F1
sI1579
F1
sI7724
F1
sI1583
F1
sI1585
F1
sI1586
F1
sI5683
F1
sI3638
F1
sI1601
F1
sI30278
F1
sI2658
F1
sI1631
F1
sI1638
F1
sI11881
F1
sI11886
F1
sI1652
F1
sI278
F1
sI1680
F1
sI1688
F1
sI1184
F1
sI3739
F1
sI9885
F1
sI193
F1
sI5803
F1
sI6945
F1
sI3775
F1
sI1734
F1
sI1735
F1
sI1737
F1
sI3363
F1
sI3800
F1
sI3804
F1
sI636
F1
sI1786
F1
sI264
F2
sI1794
F1
sI3856
F1
sI10011
F1
sI3879
F1
sI1847
F1
sI1857
F1
sI1859
F1
sI1868
F1
sI1871
F1
sI1873
F1
sI313
F1
sI1900
F1
sI1902
F1
sI6000
F1
sI3957
F1
sI8061
F1
sI1930
F1
sI2111
F1
sI1963
F1
sI1966
F1
sI1974
F1
sI671
F1
sI1987
F1
sI2004
F1
sI4055
F1
sI2008
F1
sI4061
F1
sI2020
F1
sI22586
F1
sI2039
F1
sI2523
F1
sa.